ccopy_reg
_reconstructor
p0
(cnetworkx.classes.multigraph
MultiGraph
p1
c__builtin__
object
p2
Ntp3
Rp4
(dp5
S'node'
p6
(dp7
(F725961.3840906238
F4632945.21803242
tp8
(dp9
s(F728022.6800876785
F4631276.570257836
tp10
(dp11
s(F726008.4390609307
F4633676.260054162
tp12
(dp13
s(F728101.5996920384
F4632907.7064794125
tp14
(dp15
s(F727226.2841460735
F4633055.625763786
tp16
(dp17
s(F727884.8839327868
F4632913.561497866
tp18
(dp19
s(F727971.2397797378
F4631165.885940926
tp20
(dp21
s(F727189.6187861799
F4632034.731895083
tp22
(dp23
s(F727468.735433178
F4632835.899050315
tp24
(dp25
s(F729212.6435106986
F4631371.715589921
tp26
(dp27
s(F724663.5897541778
F4632590.623597024
tp28
(dp29
s(F727317.9427992324
F4632126.191697331
tp30
(dp31
s(F727979.2314122722
F4632802.644758684
tp32
(dp33
s(F724323.8752065112
F4632078.939208441
tp34
(dp35
s(F727893.8094297142
F4633118.257010953
tp36
(dp37
s(F726846.615433378
F4631724.930683789
tp38
(dp39
s(F729185.2926239066
F4631350.607051305
tp40
(dp41
s(F726826.2756694907
F4631705.499430151
tp42
(dp43
s(F724650.5087041763
F4631952.437302046
tp44
(dp45
s(F728224.6153150826
F4631732.758495705
tp46
(dp47
s(F728029.4367409265
F4631668.629349683
tp48
(dp49
s(F727340.1646127907
F4632114.151579405
tp50
(dp51
s(F726287.580718046
F4632786.78882651
tp52
(dp53
s(F728061.8809991396
F4632175.56186292
tp54
(dp55
s(F728160.1627588937
F4632311.905502785
tp56
(dp57
s(F727995.8607604454
F4633148.640090804
tp58
(dp59
s(F728014.6482978611
F4633143.571924035
tp60
(dp61
s(F727689.7435908804
F4631522.407143205
tp62
(dp63
s(F727849.4129105412
F4632132.246565969
tp64
(dp65
s(F726837.7327791171
F4632623.473596014
tp66
(dp67
s(F728021.4737335377
F4632140.120369077
tp68
(dp69
s(F728119.1858354588
F4631747.949240909
tp70
(dp71
s(F728481.1384234718
F4631771.503874317
tp72
(dp73
s(F724945.2539824693
F4633006.308413825
tp74
(dp75
s(F727677.4214841509
F4632217.900641248
tp76
(dp77
s(F728126.2493309983
F4632677.5637611495
tp78
(dp79
s(F727446.074310411
F4632118.565068769
tp80
(dp81
s(F725166.6456046148
F4632227.576128729
tp82
(dp83
s(F727732.5353298677
F4631991.826355495
tp84
(dp85
s(F724724.3757691045
F4631719.684537816
tp86
(dp87
s(F728240.0166194064
F4632727.677658365
tp88
(dp89
s(F725164.7990262255
F4632222.849553473
tp90
(dp91
s(F728570.550418529
F4632446.75961431
tp92
(dp93
s(F727730.9223290035
F4632297.74862613
tp94
(dp95
s(F727845.1239324356
F4631492.314807826
tp96
(dp97
s(F728579.9923637034
F4631860.566779728
tp98
(dp99
s(F725721.7056098223
F4633105.644505014
tp100
(dp101
s(F725976.7996902687
F4633512.421114313
tp102
(dp103
s(F727646.6108911191
F4631831.126577156
tp104
(dp105
s(F724658.7622777099
F4631959.699596804
tp106
(dp107
s(F728166.0843970547
F4632324.8441856485
tp108
(dp109
s(F729068.1863047086
F4631586.383659422
tp110
(dp111
s(F728762.6295774302
F4631843.016164692
tp112
(dp113
s(F728147.1224198302
F4632273.190092046
tp114
(dp115
s(F728034.1653009783
F4633079.282497208
tp116
(dp117
s(F728384.4201326583
F4632590.299336023
tp118
(dp119
s(F725977.0630058948
F4633514.992326622
tp120
(dp121
s(F728240.6765748361
F4632726.974268271
tp122
(dp123
s(F725030.5220191204
F4632188.795378779
tp124
(dp125
s(F728825.3748999396
F4631955.043469165
tp126
(dp127
s(F727745.6430894894
F4631294.622136245
tp128
(dp129
s(F724482.5949015499
F4632317.61162436
tp130
(dp131
s(F727518.1855974125
F4632235.71803905
tp132
(dp133
s(F728414.5658626399
F4631711.0409979075
tp134
(dp135
s(F725916.0414234584
F4632960.632804432
tp136
(dp137
s(F728900.1131181453
F4631841.280856979
tp138
(dp139
s(F728284.9363738117
F4631663.342794701
tp140
(dp141
s(F728969.4360062843
F4631112.756734935
tp142
(dp143
s(F728790.5880432061
F4632008.531362715
tp144
(dp145
s(F728944.9686424374
F4631152.263791159
tp146
(dp147
s(F727111.9404279696
F4633104.880091403
tp148
(dp149
s(F727804.9283113137
F4633081.626943023
tp150
(dp151
s(F728418.4471356437
F4631714.499849313
tp152
(dp153
s(F729067.0179315833
F4631103.775535202
tp154
(dp155
s(F728081.5337174463
F4631896.7946159765
tp156
(dp157
s(F728633.538580009
F4631908.460396009
tp158
(dp159
s(F727534.0742046055
F4632465.283567255
tp160
(dp161
s(F726289.5992196501
F4632785.639860204
tp162
(dp163
s(F728873.1673577781
F4631881.574673017
tp164
(dp165
s(F728094.3459866289
F4632708.5489696525
tp166
(dp167
s(F728981.8130578371
F4631717.329459975
tp168
(dp169
s(F725465.8074068476
F4632670.73294262
tp170
(dp171
s(F728171.306125866
F4631794.180820483
tp172
(dp173
s(F725700.7304960729
F4633035.400425814
tp174
(dp175
s(F727767.0900048219
F4632120.836734954
tp176
(dp177
s(F724321.6679559291
F4632075.024204837
tp178
(dp179
s(F728654.9685924951
F4632506.04231694
tp180
(dp181
s(F728067.4618237446
F4631912.90784649
tp182
(dp183
s(F727417.1031963971
F4632432.68001016
tp184
(dp185
s(F728330.4655250319
F4632480.753269472
tp186
(dp187
s(F725595.1891667515
F4632860.111522688
tp188
(dp189
s(F725396.8752380656
F4633407.369826292
tp190
(dp191
s(F727319.2082004835
F4632125.336194404
tp192
(dp193
s(F728179.1365034595
F4632341.697314924
tp194
(dp195
s(F724483.1348884697
F4632318.426867637
tp196
(dp197
s(F728965.9116623506
F4633107.92132765
tp198
(dp199
s(F726476.7471558268
F4632538.380777539
tp200
(dp201
s(F728680.2630826856
F4632178.727404295
tp202
(dp203
s(F729017.1058609276
F4632973.471231069
tp204
(dp205
s(F727312.8464071109
F4632132.45915058
tp206
(dp207
s(F728318.3565299821
F4631624.819116834
tp208
(dp209
s(F727632.957364347
F4631521.111998735
tp210
(dp211
s(F728005.7003876327
F4631983.94122803
tp212
(dp213
s(F728028.8800985152
F4631668.137400657
tp214
(dp215
s(F729088.1758663505
F4631272.015041489
tp216
(dp217
s(F725196.0250819998
F4632239.951938543
tp218
(dp219
s(F728457.883212416
F4632511.287469881
tp220
(dp221
s(F729120.5688592804
F4631506.558666509
tp222
(dp223
s(F727685.0132996463
F4631526.552047027
tp224
(dp225
s(F728203.1606626901
F4632359.313082784
tp226
(dp227
s(F727977.5889129568
F4631422.740378108
tp228
(dp229
s(F728249.9793428495
F4631703.570101636
tp230
(dp231
s(F724761.252566339
F4632116.869504925
tp232
(dp233
s(F727935.2773578016
F4632065.074309645
tp234
(dp235
s(F724657.6473082518
F4631958.7185370345
tp236
(dp237
s(F724539.7263689208
F4631876.258334423
tp238
(dp239
s(F727815.8044348673
F4632124.043413935
tp240
(dp241
s(F727696.4856245794
F4631555.373154681
tp242
(dp243
s(F728028.8800985152
F4631668.137400655
tp244
(dp245
s(F726475.6063899203
F4632539.998494855
tp246
(dp247
s(F727704.5252371902
F4632283.2342211725
tp248
(dp249
s(F728271.3171141271
F4632387.093135622
tp250
(dp251
s(F728965.6743760285
F4631743.377329268
tp252
(dp253
s(F728095.4574558064
F4631880.862325012
tp254
(dp255
s(F728040.7285173867
F4631943.606029236
tp256
(dp257
s(F725216.4680115121
F4633309.526479635
tp258
(dp259
s(F728011.8029704535
F4632132.210679294
tp260
(dp261
s(F728615.4323211496
F4632279.959894167
tp262
(dp263
s(F726169.1880161108
F4632872.843706683
tp264
(dp265
s(F728029.4367409274
F4631668.629349686
tp266
(dp267
s(F728006.1047585672
F4632127.180763112
tp268
(dp269
s(F724592.4215080184
F4632483.424554699
tp270
(dp271
s(F729109.5490611134
F4631523.353480334
tp272
(dp273
s(F728025.9088060168
F4631216.963775945
tp274
(dp275
s(F724698.2345369158
F4632116.11664999
tp276
(dp277
s(F728930.0765292625
F4632755.14893453
tp278
(dp279
s(F727847.7011662095
F4633100.336774416
tp280
(dp281
s(F728380.6059180142
F4632487.695348086
tp282
(dp283
s(F729209.4409303941
F4631375.614266914
tp284
(dp285
s(F726942.5518265516
F4631822.7938673105
tp286
(dp287
s(F728101.0273844393
F4632908.68772428
tp288
(dp289
s(F724622.006754156
F4632139.27079971
tp290
(dp291
s(F728444.1319174186
F4632530.410080707
tp292
(dp293
s(F728704.1888070406
F4632140.5905886125
tp294
(dp295
s(F727737.933509986
F4631615.6103266515
tp296
(dp297
s(F727744.8260648369
F4631599.042711487
tp298
(dp299
s(F728604.7917315748
F4632296.270615568
tp300
(dp301
s(F727802.978240897
F4632351.179509729
tp302
(dp303
s(F727451.52506709
F4632103.00231621
tp304
(dp305
s(F725026.6095814506
F4632188.034203262
tp306
(dp307
s(F727981.5276203982
F4631518.124125179
tp308
(dp309
s(F728070.4692057244
F4631909.46419039
tp310
(dp311
s(F726446.4651989109
F4632588.313339565
tp312
(dp313
s(F728544.1972221225
F4631828.679746407
tp314
(dp315
s(F725491.5438263947
F4633439.92869529
tp316
(dp317
s(F727904.188254968
F4632405.653728924
tp318
(dp319
s(F727661.461909629
F4632267.187655033
tp320
(dp321
s(F727387.2552190276
F4632816.10957179
tp322
(dp323
s(F727209.1108120229
F4632761.193828724
tp324
(dp325
s(F727716.8329913714
F4631974.877080146
tp326
(dp327
s(F726685.8531262018
F4631599.444357995
tp328
(dp329
s(F728114.3337081606
F4632220.137771262
tp330
(dp331
s(F728032.71061219
F4632760.671161956
tp332
(dp333
s(F727971.2397898687
F4631165.885920463
tp334
(dp335
s(F728521.0369477848
F4632419.27447721
tp336
(dp337
ssS'graph'
p338
(dp339
sS'edge'
p340
(dp341
g8
(dp342
g136
(dp343
S'131'
p344
(dp345
S'weight'
p346
F47.89138471905119
sssg264
(dp347
S'71'
p348
(dp349
g346
F220.10169099454458
ssssg10
(dp350
(F728025.9088060168
F4631216.963775945
tp351
(dp352
S'151'
p353
(dp354
g346
F59.771397838633916
sss(F727977.5889129568
F4631422.740378108
tp355
(dp356
S'97'
p357
(dp358
g346
F153.10876097015637
ssssg12
(dp359
(F725491.5438263947
F4633439.92869529
tp360
(dp361
S'66'
p362
(dp363
g346
F572.7866602517541
sss(F725977.0630058948
F4633514.992326622
tp364
(dp365
S'139'
p366
(dp367
g346
F166.3457819479438
ssssg14
(dp368
(F728240.0166194064
F4632727.677658365
tp369
(dp370
S'38'
p371
(dp372
g346
F228.22913150459448
sssg288
(dp373
S'0'
p374
(dp375
g346
F1.13594783257934
ssS'34'
p376
(dp377
g346
F1.13594783257934
ssssg16
(dp378
(F727111.9404279696
F4633104.880091403
tp379
(dp380
S'164'
p381
(dp382
g346
F129.37346500710322
sssg24
(dp383
S'144'
p384
(dp385
g346
F383.92276968265077
sss(F727387.2552190276
F4632816.10957179
tp386
(dp387
S'163'
p388
(dp389
g346
F336.6018517704699
ssssg18
(dp390
g32
(dp391
S'29'
p392
(dp393
g346
F147.29371377166638
sssg150
(dp394
S'30'
p395
(dp396
g346
F186.54479841708462
ssssg20
(dp397
g274
(dp398
S'150'
p399
(dp400
g346
F80.72640533291975
ssssg22
(dp401
g286
(dp402
S'73'
p403
(dp404
g346
F326.96798141410625
sss(F727317.9427992324
F4632126.191697331
tp405
(dp406
S'127'
p407
(dp408
g346
F157.5836482218847
sssg200
(dp409
S'17'
p410
(dp411
g346
F901.4814816352493
ssssg24
(dp412
g322
(dp413
S'162'
p414
(dp415
g346
F83.84896396657797
sssg16
g383
ssg26
(dp416
(F729185.2926239066
F4631350.607051305
tp417
(dp418
S'32'
p419
(dp420
g346
F34.54981539298393
ssssg28
(dp421
g270
(dp422
S'61'
p423
(dp424
g346
F128.67249131590978
sss(F724945.2539824693
F4633006.308413825
tp425
(dp426
S'63'
p427
(dp428
g346
F502.15022816390797
ssssg30
(dp429
g132
(dp430
S'59'
p431
(dp432
g346
F229.75836350569267
sss(F727189.6187861799
F4632034.731895083
tp433
g406
ssg32
(dp434
g18
g391
sg332
(dp435
S'78'
p436
(dp437
g346
F68.17111847956153
ssssg34
(dp438
g130
(dp439
S'136'
p440
(dp441
g346
F287.35666325773263
ssssg36
(dp442
(F727995.8607604454
F4633148.640090804
tp443
(dp444
S'82'
p445
(dp446
g346
F107.30937391207333
sssg280
(dp447
S'81'
p448
(dp449
g346
F49.468240730139776
ssssg38
(dp450
g42
(dp451
S'156'
p452
(dp453
g346
F28.130818392798517
sss(F726942.5518265516
F4631822.7938673105
tp454
(dp455
S'158'
p456
(dp457
g346
F137.07502320847786
ssssg40
(dp458
(F729088.1758663505
F4631272.015041489
tp459
(dp460
S'31'
p461
(dp462
g346
F124.93368161002431
sssg26
g418
sg154
(dp463
S'20'
p464
(dp465
g346
F366.71087631108117
ssssg42
(dp466
g328
(dp467
S'157'
p468
(dp469
g346
F176.2577943173194
sssg38
g451
ssg44
(dp470
g236
(dp471
S'5'
p472
(dp473
g346
F9.508605634992621
sssg290
(dp474
S'14'
p475
(dp476
g346
F220.45415770596034
ssssg46
(dp477
(F728249.9793428495
F4631703.570101636
tp478
(dp479
S'108'
p480
(dp481
g346
F38.66906066702583
sssg172
(dp482
S'54'
p483
(dp484
g346
F81.33002872866075
ssssg48
(dp485
(F728028.8800985152
F4631668.137400657
tp486
(dp487
S'56'
p488
(dp489
g346
F0.742875910687335
sssg70
(dp490
S'55'
p491
(dp492
g346
F119.77706422102236
ssssg50
(dp493
g192
(dp494
S'128'
p495
(dp496
g346
F23.881490572260958
sssg80
(dp497
S'23'
p498
(dp499
g346
F106.49836980517907
ssssg52
(dp500
g162
(dp501
S'70'
p502
(dp503
g346
F2.322600331049634
sss(F726169.1880161108
F4632872.843706683
tp504
(dp505
S'72'
p506
(dp507
g346
F147.0140505066487
ssssg54
(dp508
(F728021.4737335377
F4632140.120369077
tp509
(dp510
S'124'
p511
(dp512
g346
F53.76749291808447
sssg330
(dp513
S'15'
p514
(dp515
g346
F68.85396962124517
ssssg56
(dp516
g114
(dp517
S'121'
p518
(dp519
g346
F40.87079301218954
sss(F728166.0843970547
F4632324.8441856485
tp520
(dp521
S'120'
p522
(dp523
g346
F14.246214784118045
ssssg58
(dp524
(F727893.8094297142
F4633118.257010953
tp525
g444
sg60
(dp526
S'28'
p527
(dp528
g346
F19.50775466026323
ssssg60
(dp529
g116
(dp530
S'35'
p531
(dp532
g346
F67.18663418066158
sssg58
g526
ssg62
(dp533
(F727745.6430894894
F4631294.622136245
tp534
(dp535
S'57'
p536
(dp537
g346
F299.7475530279037
sss(F727685.0132996463
F4631526.552047027
tp538
(dp539
S'99'
p540
(dp541
g346
F6.289346774660189
ssssg64
(dp542
g240
(dp543
S'114'
p544
(dp545
g346
F35.00889115010793
sssg234
(dp546
S'9'
p547
(dp548
g346
F113.72468836201985
ssssg66
(dp549
g324
(dp550
S'148'
p551
(dp552
g346
F475.888943862206
ssssg68
(dp553
g260
(dp554
S'123'
p555
(dp556
g346
F12.49347233942123
sss(F728061.8809991396
F4632175.56186292
tp557
g510
ssg70
(dp558
g48
g490
s(F728171.306125866
F4631794.180820483
tp559
(dp560
S'105'
p561
(dp562
g346
F69.66982264212174
ssssg72
(dp563
(F728418.4471356437
F4631714.499849313
tp564
(dp565
S'11'
p566
(dp567
g346
F84.73285618534183
sss(F728544.1972221225
F4631828.679746407
tp568
(dp569
S'94'
p570
(dp571
g346
F85.12061110833757
ssssg74
(dp572
(F724663.5897541778
F4632590.623597024
tp573
g426
sg258
(dp574
S'62'
p575
(dp576
g346
F408.822224258251
ssssg76
(dp577
g176
(dp578
S'18'
p579
(dp580
g346
F136.46365356991035
sssg320
(dp581
S'13'
p582
(dp583
g346
F51.83286383256639
sss(F727446.074310411
F4632118.565068769
tp584
(dp585
S'24'
p586
(dp587
g346
F254.2305361142384
ssssg78
(dp588
(F728094.3459866289
F4632708.5489696525
tp589
(dp590
S'80'
p591
(dp592
g346
F44.47835994876593
sss(F728240.6765748361
F4632726.974268271
tp593
(dp594
S'52'
p595
(dp596
g346
F147.84770786463451
ssssg80
(dp597
g304
(dp598
S'149'
p599
(dp600
g346
F287.40876578408637
sss(F727677.4214841509
F4632217.900641248
tp601
g585
sg50
g497
ssg82
(dp602
g90
(dp603
S'1'
p604
(dp605
g346
F5.074481785630407
sssg218
(dp606
S'2'
p607
(dp608
g346
F31.930370524817377
ssssg84
(dp609
(F727767.0900048219
F4632120.836734954
tp610
(dp611
S'104'
p612
(dp613
g346
F134.75958721414463
sss(F727716.8329913714
F4631974.877080146
tp614
(dp615
S'103'
p616
(dp617
g346
F23.184229176645985
ssssg86
(dp618
(F724658.7622777099
F4631959.699596804
tp619
(dp620
S'147'
p621
(dp622
g346
F740.4081319457098
sssg238
(dp623
S'133'
p624
(dp625
g346
F255.42075912926617
ssssg88
(dp626
(F728101.5996920384
F4632907.7064794125
tp627
g370
sg122
(dp628
S'37'
p629
(dp630
g346
F0.964519981234343
ssssg90
(dp631
g82
g603
s(F725030.5220191204
F4632188.795378779
tp632
(dp633
S'134'
p634
(dp635
g346
F139.12632250766242
ssssg92
(dp636
(F728654.9685924951
F4632506.04231694
tp637
(dp638
S'141'
p639
(dp640
g346
F103.17593118569107
sss(F728521.0369477848
F4632419.27447721
tp641
(dp642
S'140'
p643
(dp644
g346
F56.647296717224556
ssssg94
(dp645
(F727704.5252371902
F4632283.2342211725
tp646
(dp647
S'155'
p648
(dp649
g346
F30.125103386741714
sss(F727802.978240897
F4632351.179509729
tp650
(dp651
S'154'
p652
(dp653
g346
F89.7395040077266
ssssg96
(dp654
(F727744.8260648369
F4631599.042711487
tp655
(dp656
S'100'
p657
(dp658
g346
F153.07245966945854
sss(F727981.5276203982
F4631518.124125179
tp659
(dp660
S'74'
p661
(dp662
g346
F140.53208965293493
ssssg98
(dp663
(F728633.538580009
F4631908.460396009
tp664
(dp665
S'92'
p666
(dp667
g346
F71.84029905206009
sssg314
(dp668
S'93'
p669
(dp670
g346
F47.93824330033085
ssssg100
(dp671
g174
(dp672
S'67'
p673
(dp674
g346
F73.33249650329861
sssg102
(dp675
S'68'
p676
(dp677
g346
F520.321010829966
ssssg102
(dp678
(F725721.7056098223
F4633105.644505014
tp679
g675
sg120
(dp680
S'69'
p681
(dp682
g346
F2.584660104195326
ssssg104
(dp683
(F727737.933509986
F4631615.6103266515
tp684
(dp685
S'102'
p686
(dp687
g346
F234.07127942661606
sssg326
(dp688
S'7'
p689
(dp690
g346
F180.0913262926635
ssssg106
(dp691
(F724657.6473082518
F4631958.7185370345
tp692
(dp693
S'6'
p694
(dp695
g346
F1.485138095645006
sss(F724724.3757691045
F4631719.684537816
tp696
g620
ssg108
(dp697
g56
g521
s(F728179.1365034595
F4632341.697314924
tp698
(dp699
S'119'
p700
(dp701
g346
F21.389711332953333
ssssg110
(dp702
g272
(dp703
S'50'
p704
(dp705
g346
F75.39020671360613
sss(F728981.8130578371
F4631717.329459975
tp706
(dp707
S'49'
p708
(dp709
g346
F156.87164666352882
ssssg112
(dp710
(F728873.1673577781
F4631881.574673017
tp711
(dp712
S'91'
p713
(dp714
g346
F118.72716426140236
sssg158
(dp715
S'3'
p716
(dp717
g346
F145.76339440169323
ssssg114
(dp718
(F728160.1627588937
F4632311.905502785
tp719
g517
s(F728114.3337081606
F4632220.137771262
tp720
(dp721
S'122'
p722
(dp723
g346
F63.24204512438008
ssssg116
(dp724
(F728101.0273844393
F4632908.68772428
tp725
(dp726
S'36'
p727
(dp728
g346
F183.65978390097501
sss(F728014.6482978611
F4633143.571924035
tp729
g530
ssg118
(dp730
(F728240.6765748361
F4632726.974268271
tp731
(dp732
S'39'
p733
(dp734
g346
F198.64555072108007
sss(F728444.1319174186
F4632530.410080707
tp735
(dp736
S'41'
p737
(dp738
g346
F85.02183316416733
ssssg120
(dp739
(F726008.4390609307
F4633676.260054162
tp740
g365
s(F725976.7996902687
F4633512.421114313
tp741
g680
ssg122
(dp742
g88
g628
sg118
g732
sg78
g594
ssg124
(dp743
g306
(dp744
S'26'
p745
(dp746
g346
F3.985794360960919
sss(F725164.7990262255
F4632222.849553473
tp747
g633
ssg126
(dp748
g164
(dp749
S'46'
p750
(dp751
g346
F87.6458360535802
sss(F728790.5880432061
F4632008.531362715
tp752
(dp753
S'95'
p754
(dp755
g346
F63.80504548467293
ssssg128
(dp756
g62
g535
sg210
(dp757
S'8'
p758
(dp759
g346
F310.261559853409
ssssg130
(dp760
g196
(dp761
S'137'
p762
(dp763
g346
F0.977858616527807
sssg34
g439
ssg132
(dp764
(F727661.461909629
F4632267.187655033
tp765
(dp766
S'126'
p767
(dp768
g346
F146.72230916983386
sssg30
g430
ssg134
(dp769
g152
(dp770
S'10'
p771
(dp772
g346
F5.198839598842575
sssg208
(dp773
S'53'
p774
(dp775
g346
F129.19568365645847
ssssg136
(dp776
(F725961.3840906238
F4632945.21803242
tp777
g343
s(F725700.7304960729
F4633035.400425814
tp778
(dp779
S'132'
p780
(dp781
g346
F227.94136246606345
ssssg138
(dp782
(F728873.1673577781
F4631881.574673017
tp783
(dp784
S'87'
p785
(dp786
g346
F48.48518153948764
sssg252
(dp787
S'47'
p788
(dp789
g346
F117.84672679992667
ssssg140
(dp790
g230
(dp791
S'107'
p792
(dp793
g346
F53.293810493684845
sss(F728318.3565299821
F4631624.819116834
tp794
(dp795
S'106'
p796
(dp797
g346
F50.999812236031914
ssssg142
(dp798
(F728944.9686424374
F4631152.263791159
tp799
(dp800
S'88'
p801
(dp802
g346
F46.61838460466159
sss(F729067.0179315833
F4631103.775535202
tp803
(dp804
S'89'
p805
(dp806
g346
F106.64115990250752
ssssg144
(dp807
(F728704.1888070406
F4632140.5905886125
tp808
(dp809
S'45'
p810
(dp811
g346
F157.8114938337465
sss(F728825.3748999396
F4631955.043469165
tp812
g753
ssg146
(dp813
g216
(dp814
S'4'
p815
(dp816
g346
F186.7064184496067
sssg142
g800
ssg148
(dp817
(F727226.2841460735
F4633055.625763786
tp818
g380
s(F727209.1108120229
F4632761.193828724
tp819
(dp820
S'161'
p821
(dp822
g346
F364.6759523813873
ssssg150
(dp823
(F727884.8839327868
F4632913.561497866
tp824
g394
s(F727847.7011662095
F4633100.336774416
tp825
(dp826
S'83'
p827
(dp828
g346
F47.23928500921509
ssssg152
(dp829
g72
g565
sg134
g770
ssg154
(dp830
g40
g463
s(F728969.4360062843
F4631112.756734935
tp831
g804
ssg156
(dp832
g310
(dp833
S'110'
p834
(dp835
g346
F16.820866073439458
sss(F728095.4574558064
F4631880.862325012
tp836
(dp837
S'109'
p838
(dp839
g346
F21.159120617556358
ssssg158
(dp840
g98
g665
sg112
g715
ssg160
(dp841
(F727661.461909629
F4632267.187655033
tp842
(dp843
S'159'
p844
(dp845
g346
F243.10514539552528
sss(F727209.1108120229
F4632761.193828724
tp846
(dp847
S'160'
p848
(dp849
g346
F451.2311672244994
sss(F727417.1031963971
F4632432.68001016
tp850
(dp851
S'145'
p852
(dp853
g346
F121.42985092862048
ssssg162
(dp854
g52
g501
s(F726446.4651989109
F4632588.313339565
tp855
(dp856
S'130'
p857
(dp858
g346
F253.80370058596264
ssssg164
(dp859
g126
g749
s(F728900.1131181453
F4631841.280856979
tp860
g784
s(F728762.6295774302
F4631843.016164692
tp861
g712
ssg166
(dp862
(F728032.71061219
F4632760.671161956
tp863
(dp864
S'79'
p865
(dp866
g346
F80.86858575684697
sss(F728126.2493309983
F4632677.5637611495
tp867
g590
ssg168
(dp868
g110
g707
s(F728965.6743760285
F4631743.377329268
tp869
(dp870
S'48'
p871
(dp872
g346
F30.642285454690743
ssssg170
(dp873
(F725595.1891667515
F4632860.111522688
tp874
(dp875
S'166'
p876
(dp877
g346
F235.4945535446871
sss(F725196.0250819998
F4632239.951938543
tp878
(dp879
S'19'
p880
(dp881
g346
F535.4483776718264
ssssg172
(dp882
g46
g482
s(F728119.1858354588
F4631747.949240909
tp883
g560
sg254
(dp884
S'77'
p885
(dp886
g346
F115.18124893516917
ssssg174
(dp887
g188
(dp888
S'165'
p889
(dp890
g346
F210.43817169326917
sssg100
g672
s(F725916.0414234584
F4632960.632804432
tp891
g779
ssg176
(dp892
(F727815.8044348673
F4632124.043413935
tp893
(dp894
S'115'
p895
(dp896
g346
F49.78216954443115
sss(F727677.4214841509
F4632217.900641248
tp897
g578
s(F727732.5353298677
F4631991.826355495
tp898
g611
ssg178
(dp899
(F724539.7263689208
F4631876.258334423
tp900
(dp901
S'146'
p902
(dp903
g346
F297.57390191772663
ssssg180
(dp904
g278
(dp905
S'76'
p906
(dp907
g346
F372.80899890587517
sss(F728570.550418529
F4632446.75961431
tp908
g638
ssg182
(dp909
(F728070.4692057244
F4631909.46419039
tp910
(dp911
S'111'
p912
(dp913
g346
F4.571992312813595
sssg256
(dp914
S'112'
p915
(dp916
g346
F40.70688476589781
ssssg184
(dp917
g160
g851
sg206
(dp918
S'33'
p919
(dp920
g346
F384.38349884816023
ssssg186
(dp921
g250
(dp922
S'116'
p923
(dp924
g346
F113.44139428150942
sss(F728380.6059180142
F4632487.695348086
tp925
(dp926
S'84'
p927
(dp928
g346
F50.709652598825514
sssg318
(dp929
S'21'
p930
(dp931
g346
F444.6226674641738
ssssg188
(dp932
(F725700.7304960729
F4633035.400425814
tp933
g888
s(F725465.8074068476
F4632670.73294262
tp934
g875
ssg190
(dp935
g316
(dp936
S'65'
p937
(dp938
g346
F100.1113098612589
sss(F725216.4680115121
F4633309.526479635
tp939
(dp940
S'64'
p941
(dp942
g346
F207.0481773022187
ssssg192
(dp943
(F727340.1646127907
F4632114.151579405
tp944
g494
ssg194
(dp945
(F728203.1606626901
F4632359.313082784
tp946
(dp947
S'118'
p948
(dp949
g346
F29.977058124273615
sssg108
g699
ssg196
(dp950
(F724592.4215080184
F4632483.424554699
tp951
(dp952
S'138'
p953
(dp954
g346
F197.90857135314903
sss(F724482.5949015499
F4632317.61162436
tp955
g761
ssg198
(dp956
g204
(dp957
S'142'
p958
(dp959
g346
F148.9166539101413
ssssg200
(dp960
g22
g409
ssg202
(dp961
g294
(dp962
S'44'
p963
(dp964
g346
F45.02078124309679
sss(F728615.4323211496
F4632279.959894167
tp965
(dp966
S'86'
p967
(dp968
g346
F120.21775326752115
ssssg204
(dp969
g198
g957
s(F728930.0765292625
F4632755.14893453
tp970
(dp971
S'143'
p972
(dp973
g346
F236.9164898770029
ssssg206
(dp974
g184
g918
ssg208
(dp975
(F728414.5658626399
F4631711.0409979075
tp976
g773
sg140
g795
ssg210
(dp977
g128
g757
s(F727685.0132996463
F4631526.552047027
tp978
(dp979
S'98'
p980
(dp981
g346
F53.996111183261895
ssssg212
(dp982
(F727935.2773578016
F4632065.074309645
tp983
(dp984
S'22'
p985
(dp986
g346
F107.4336119808548
sss(F728040.7285173867
F4631943.606029236
tp987
(dp988
S'113'
p989
(dp990
g346
F53.42188817193409
ssssg214
(dp991
(F728029.4367409265
F4631668.629349683
tp992
g487
sg308
(dp993
S'12'
p994
(dp995
g346
F166.10123594128157
ssssg216
(dp996
g146
g814
s(F729185.2926239066
F4631350.607051305
tp997
g460
ssg218
(dp998
(F725166.6456046148
F4632227.576128729
tp999
g606
sg170
g879
ssg220
(dp1000
g292
(dp1001
S'40'
p1002
(dp1003
g346
F23.553838643052174
sssg336
(dp1004
S'42'
p1005
(dp1006
g346
F111.60171580322933
sssg282
(dp1007
S'60'
p1008
(dp1009
g346
F80.90212024484524
ssssg222
(dp1010
(F729109.5490611134
F4631523.353480334
tp1011
(dp1012
S'90'
p1013
(dp1014
g346
F20.087352316422418
sssg284
(dp1015
S'51'
p1016
(dp1017
g346
F158.5163661086649
ssssg224
(dp1018
(F727696.4856245794
F4631555.373154681
tp1019
(dp1020
S'75'
p1021
(dp1022
g346
F31.730575936683472
sss(F727689.7435908804
F4631522.407143205
tp1023
g539
s(F727632.957364347
F4631521.111998735
tp1024
g979
ssg226
(dp1025
g194
g947
s(F728271.3171141271
F4632387.093135622
tp1026
(dp1027
S'117'
p1028
(dp1029
g346
F74.30123630249818
ssssg228
(dp1030
g10
g356
s(F727981.5276203982
F4631518.124125179
tp1031
(dp1032
S'96'
p1033
(dp1034
g346
F97.25806938125608
ssssg230
(dp1035
(F728224.6153150826
F4631732.758495705
tp1036
g479
s(F728284.9363738117
F4631663.342794701
tp1037
g791
ssg232
(dp1038
(F725026.6095814506
F4632188.034203262
tp1039
(dp1040
S'27'
p1041
(dp1042
g346
F275.73395015862627
sssg276
(dp1043
S'25'
p1044
(dp1045
g346
F63.608539799345955
ssssg234
(dp1046
g212
g984
sg64
g546
sg268
(dp1047
S'58'
p1048
(dp1049
g346
F94.20069227486212
ssssg236
(dp1050
g106
g693
sg44
g471
ssg238
(dp1051
g178
g901
sg86
g623
ssg240
(dp1052
(F727767.0900048219
F4632120.836734954
tp1053
g894
s(F727849.4129105412
F4632132.246565969
tp1054
g543
ssg242
(dp1055
g298
(dp1056
S'16'
p1057
(dp1058
g346
F69.16164577660835
sssg224
g1020
ssg244
(dp1059
g266
(dp1060
S'167'
p1061
(dp1062
g346
F0.742875914468895
ssssg246
(dp1063
g312
(dp1064
S'129'
p1065
(dp1066
g346
F56.43991739965119
ssssg248
(dp1067
(F727661.461909629
F4632267.187655033
tp1068
(dp1069
S'153'
p1070
(dp1071
g346
F45.97104322489327
sss(F727730.9223290035
F4632297.74862613
tp1072
g647
ssg250
(dp1073
(F728330.4655250319
F4632480.753269472
tp1074
g922
sg226
g1027
ssg252
(dp1075
g138
g787
sg168
g870
ssg254
(dp1076
(F728171.306125866
F4631794.180820483
tp1077
g884
sg156
g837
ssg256
(dp1078
(F728005.7003876327
F4631983.94122803
tp1079
g988
s(F728067.4618237446
F4631912.90784649
tp1080
g914
ssg258
(dp1081
g74
g574
sg190
g940
ssg260
(dp1082
g68
g554
s(F728006.1047585672
F4632127.180763112
tp1083
(dp1084
S'125'
p1085
(dp1086
g346
F7.600636518857685
ssssg262
(dp1087
(F728604.7917315748
F4632296.270615568
tp1088
(dp1089
S'85'
p1090
(dp1091
g346
F19.474644518574394
sss(F728680.2630826856
F4632178.727404295
tp1092
g966
ssg264
(dp1093
g8
g347
s(F726287.580718046
F4632786.78882651
tp1094
g505
ssg266
(dp1095
g244
g1060
ssg268
(dp1096
(F728011.8029704535
F4632132.210679294
tp1097
g1084
s(F727935.2773578016
F4632065.074309645
tp1098
g1047
ssg270
(dp1099
(F724483.1348884697
F4632318.426867637
tp1100
g952
sg28
g422
ssg272
(dp1101
(F729120.5688592804
F4631506.558666509
tp1102
g1012
s(F729068.1863047086
F4631586.383659422
tp1103
g703
ssg274
(dp1104
(F728022.6800876785
F4631276.570257836
tp1105
g352
sg20
g398
sg334
(dp1106
S'168'
p1107
(dp1108
g346
F318.94422671027877
ssssg276
(dp1109
g232
g1043
s(F724622.006754156
F4632139.27079971
tp1110
(dp1111
S'135'
p1112
(dp1113
g346
F80.02521995704586
ssssg278
(dp1114
(F729017.1058609276
F4632973.471231069
tp1115
g971
sg180
g905
ssg280
(dp1116
g36
g447
s(F727804.9283113137
F4633081.626943023
tp1117
g826
ssg282
(dp1118
(F728457.883212416
F4632511.287469881
tp1119
g1007
s(F728330.4655250319
F4632480.753269472
tp1120
g926
ssg284
(dp1121
g222
g1015
ssg286
(dp1122
(F727189.6187861799
F4632034.731895083
tp1123
g402
s(F726846.615433378
F4631724.930683789
tp1124
g455
ssg288
(dp1125
(F728034.1653009783
F4633079.282497208
tp1126
g726
sg14
g373
ssg290
(dp1127
(F724698.2345369158
F4632116.11664999
tp1128
g1111
s(F724650.5087041763
F4631952.437302046
tp1129
g474
ssg292
(dp1130
g220
g1001
s(F728384.4201326583
F4632590.299336023
tp1131
g736
ssg294
(dp1132
g144
g809
sg202
g962
ssg296
(dp1133
(F727646.6108911191
F4631831.126577156
tp1134
g685
s(F727744.8260648369
F4631599.042711487
tp1135
(dp1136
S'101'
p1137
(dp1138
g346
F17.944168540497206
ssssg298
(dp1139
g242
g1056
sg296
g1136
s(F727845.1239324356
F4631492.314807826
tp1140
g656
ssg300
(dp1141
g262
g1089
s(F728521.0369477848
F4632419.27447721
tp1142
(dp1143
S'43'
p1144
(dp1145
g346
F148.83072804853762
ssssg302
(dp1146
g94
g651
s(F727904.188254968
F4632405.653728924
tp1147
(dp1148
S'152'
p1149
(dp1150
g346
F115.22310173456604
ssssg304
(dp1151
(F727446.074310411
F4632118.565068769
tp1152
g598
ssg306
(dp1153
(F724761.252566339
F4632116.869504925
tp1154
g1040
sg124
g744
ssg308
(dp1155
g214
g993
sg228
g1032
sg96
g660
ssg310
(dp1156
g182
g911
s(F728081.5337174463
F4631896.7946159765
tp1157
g833
ssg312
(dp1158
(F726289.5992196501
F4632785.639860204
tp1159
g856
sg246
g1064
ssg314
(dp1160
(F728579.9923637034
F4631860.566779728
tp1161
g668
s(F728481.1384234718
F4631771.503874317
tp1162
g569
ssg316
(dp1163
(F725396.8752380656
F4633407.369826292
tp1164
g936
sg12
g361
ssg318
(dp1165
g186
g929
sg302
g1148
ssg320
(dp1166
g76
g581
s(F727534.0742046055
F4632465.283567255
tp1167
g843
s(F727518.1855974125
F4632235.71803905
tp1168
g766
sg248
g1069
ssg322
(dp1169
(F727468.735433178
F4632835.899050315
tp1170
g413
s(F727226.2841460735
F4633055.625763786
tp1171
g387
ssg324
(dp1172
(F727534.0742046055
F4632465.283567255
tp1173
g847
sg66
g550
sg148
g820
ssg326
(dp1174
g104
g688
sg84
g615
ssg328
(dp1175
(F726826.2756694907
F4631705.499430151
tp1176
g467
ssg330
(dp1177
(F728147.1224198302
F4632273.190092046
tp1178
g721
sg54
g513
ssg332
(dp1179
(F727979.2314122722
F4632802.644758684
tp1180
g435
sg166
g864
ssg334
(dp1181
(F728025.9088060168
F4631216.963775945
tp1182
g1106
ssg336
(dp1183
(F728457.883212416
F4632511.287469881
tp1184
g1004
sg300
g1143
sg92
g642
sssS'adj'
p1185
g341
sb.