ccopy_reg
_reconstructor
p0
(cnetworkx.classes.multigraph
MultiGraph
p1
c__builtin__
object
p2
Ntp3
Rp4
(dp5
S'node'
p6
(dp7
(F725961.3840906238
F4632945.21803242
tp8
(dp9
s(F728022.6800876785
F4631276.570257836
tp10
(dp11
s(F729391.2088385731
F4631384.789785755
tp12
(dp13
s(F726826.2756694907
F4631705.499430151
tp14
(dp15
s(F727775.4506711953
F4632247.288120112
tp16
(dp17
s(F724663.5897541778
F4632590.623597024
tp18
(dp19
s(F726213.9693830318
F4633749.468231625
tp20
(dp21
s(F725700.7304960729
F4633035.400425814
tp22
(dp23
s(F724323.8752065112
F4632078.939208441
tp24
(dp25
s(F727775.4484366819
F4632247.284586716
tp26
(dp27
s(F726042.5418736974
F4633688.900763541
tp28
(dp29
s(F727971.2397797378
F4631165.885940926
tp30
(dp31
s(F725765.3345228384
F4631474.669762542
tp32
(dp33
s(F728224.6153150826
F4631732.758495705
tp34
(dp35
s(F728029.4367409274
F4631668.629349686
tp36
(dp37
s(F727340.1646127907
F4632114.151579405
tp38
(dp39
s(F728723.2615229886
F4631722.04153178
tp40
(dp41
s(F728160.1627588937
F4632311.905502785
tp42
(dp43
s(F728014.6482978611
F4633143.571924035
tp44
(dp45
s(F727689.7435908804
F4631522.407143205
tp46
(dp47
s(F727756.4573303794
F4632591.895823977
tp48
(dp49
s(F725626.577917748
F4632493.4189114785
tp50
(dp51
s(F727677.4214841509
F4632217.900641248
tp52
(dp53
s(F729020.1725859422
F4631455.014636906
tp54
(dp55
s(F727730.9140632452
F4632297.7439689245
tp56
(dp57
s(F725166.6456046148
F4632227.576128729
tp58
(dp59
s(F727696.4856245794
F4631555.373154681
tp60
(dp61
s(F725164.7990262255
F4632222.849553473
tp62
(dp63
s(F724640.1448509705
F4634514.438614936
tp64
(dp65
s(F725824.2050481692
F4631624.807255327
tp66
(dp67
s(F725721.7056098223
F4633105.644505014
tp68
(dp69
s(F728171.306125866
F4631794.180820483
tp70
(dp71
s(F727646.6108911191
F4631831.126577156
tp72
(dp73
s(F729600.7494761918
F4631014.159328508
tp74
(dp75
s(F729209.4409303941
F4631375.614266914
tp76
(dp77
s(F728240.6765748361
F4632726.974268271
tp78
(dp79
s(F729067.0179315833
F4631103.775535202
tp80
(dp81
s(F727774.2353016367
F4632248.668129582
tp82
(dp83
s(F727248.7865143036
F4631529.540895255
tp84
(dp85
s(F727424.5886951046
F4630679.16004215
tp86
(dp87
s(F729068.5282015018
F4631863.279299082
tp88
(dp89
s(F728284.9363738117
F4631663.342794701
tp90
(dp91
s(F728969.4360062843
F4631112.756734935
tp92
(dp93
s(F728519.1505597022
F4632763.67901488
tp94
(dp95
s(F728418.4471356437
F4631714.499849313
tp96
(dp97
s(F723262.7673813066
F4630982.015356659
tp98
(dp99
s(F728081.5337174463
F4631896.7946159765
tp100
(dp101
s(F727534.0742046055
F4632465.283567255
tp102
(dp103
s(F727317.9337515975
F4632126.184802818
tp104
(dp105
s(F725019.016482278
F4633475.02001315
tp106
(dp107
s(F727560.5284006596
F4631189.56876712
tp108
(dp109
s(F728067.4629138869
F4631912.906597308
tp110
(dp111
s(F728901.411629567
F4632038.096214111
tp112
(dp113
s(F728981.8130578371
F4631717.329459975
tp114
(dp115
s(F727734.090662459
F4634567.814061576
tp116
(dp117
s(F728094.3459866289
F4632708.5489696525
tp118
(dp119
s(F724321.6679559291
F4632075.024204837
tp120
(dp121
s(F727998.050386104
F4630641.657347396
tp122
(dp123
s(F728654.9685924951
F4632506.04231694
tp124
(dp125
s(F725348.5754689572
F4633165.091994523
tp126
(dp127
s(F728330.4655250319
F4632480.753269472
tp128
(dp129
s(F727094.3836619088
F4631604.098665779
tp130
(dp131
s(F727319.2082004835
F4632125.336194404
tp132
(dp133
s(F728819.2241334657
F4632126.939325336
tp134
(dp135
s(F726343.2995946307
F4633318.41485946
tp136
(dp137
s(F728965.9116623506
F4633107.92132765
tp138
(dp139
s(F728395.1640872674
F4630487.735427786
tp140
(dp141
s(F729160.8634227808
F4630103.787125321
tp142
(dp143
s(F729017.1058609276
F4632973.471231069
tp144
(dp145
s(F728318.3565299821
F4631624.819116834
tp146
(dp147
s(F727111.9404279696
F4633104.880091403
tp148
(dp149
s(F726827.3157548559
F4631335.286919805
tp150
(dp151
s(F725196.0250819998
F4632239.951938543
tp152
(dp153
s(F726264.8857600644
F4632998.9232813595
tp154
(dp155
s(F727585.9082326686
F4631340.433692854
tp156
(dp157
s(F729120.5688592804
F4631506.558666509
tp158
(dp159
s(F727685.0132996463
F4631526.552047027
tp160
(dp161
s(F726653.0159901723
F4632543.966169179
tp162
(dp163
s(F726771.733284397
F4632712.243817899
tp164
(dp165
s(F726586.181130031
F4632700.344775771
tp166
(dp167
s(F727584.242760262
F4630991.029069324
tp168
(dp169
s(F727732.1405902479
F4632296.3732568985
tp170
(dp171
s(F726307.4487018035
F4629660.857193117
tp172
(dp173
s(F726609.7666895215
F4633980.782654444
tp174
(dp175
s(F725216.4680115121
F4633309.526479635
tp176
(dp177
s(F728959.3962362842
F4632213.690537725
tp178
(dp179
s(F730816.8087736744
F4632900.688532272
tp180
(dp181
s(F727608.1585444275
F4631657.149472053
tp182
(dp183
s(F727451.0649473364
F4631651.695364726
tp184
(dp185
s(F728006.1047585672
F4632127.180763112
tp186
(dp187
s(F724592.4215080184
F4632483.424554699
tp188
(dp189
s(F728025.9088060168
F4631216.963775945
tp190
(dp191
s(F728878.9007617348
F4633397.788007682
tp192
(dp193
s(F729503.8575587004
F4635197.35480215
tp194
(dp195
s(F725254.4101717658
F4634158.689746041
tp196
(dp197
s(F724698.2345369158
F4632116.11664999
tp198
(dp199
s(F727847.7011662095
F4633100.336774416
tp200
(dp201
s(F727565.2380166536
F4631605.206145283
tp202
(dp203
s(F726431.2218323466
F4632756.779383113
tp204
(dp205
s(F726837.7327791171
F4632623.473596014
tp206
(dp207
s(F729741.2093038531
F4631053.693314294
tp208
(dp209
s(F727955.6112231173
F4633297.076681268
tp210
(dp211
s(F726446.4651989109
F4632588.313339565
tp212
(dp213
s(F726942.5518265516
F4631822.7938673105
tp214
(dp215
s(F727387.2552190276
F4632816.10957179
tp216
(dp217
s(F728013.1524080249
F4633148.748295793
tp218
(dp219
s(F727716.8329913714
F4631974.877080146
tp220
(dp221
s(F728241.6771468419
F4630563.745069347
tp222
(dp223
s(F727997.2381720252
F4630648.856320788
tp224
(dp225
s(F726685.8531262018
F4631599.444357995
tp226
(dp227
s(F728114.3337081606
F4632220.137771262
tp228
(dp229
s(F728338.5800537178
F4631793.307605878
tp230
(dp231
s(F727773.5861156598
F4632249.40022572
tp232
(dp233
s(F729178.9132283742
F4631991.98381625
tp234
(dp235
s(F728255.7493229044
F4630597.096323287
tp236
(dp237
s(F727421.0344274084
F4631461.446023394
tp238
(dp239
s(F725343.450275594
F4635149.964877695
tp240
(dp241
s(F727345.859763312
F4631252.307735658
tp242
(dp243
s(F728126.2493309983
F4632677.5637611495
tp244
(dp245
s(F728029.4367409265
F4631668.629349683
tp246
(dp247
s(F726569.0803057437
F4632686.352230362
tp248
(dp249
s(F728440.5183195851
F4631019.831780597
tp250
(dp251
s(F724945.167533184
F4631244.696843686
tp252
(dp253
s(F728481.1384234718
F4631771.503874317
tp254
(dp255
s(F727999.7439334573
F4632871.103799701
tp256
(dp257
s(F724724.3757691045
F4631719.684537816
tp258
(dp259
s(F727981.5276203982
F4631518.124125179
tp260
(dp261
s(F728158.0507714676
F4630288.858380589
tp262
(dp263
s(F728065.3691980868
F4631538.699011285
tp264
(dp265
s(F727845.1239324356
F4631492.314807826
tp266
(dp267
s(F728579.9923637034
F4631860.566779728
tp268
(dp269
s(F728067.4618237446
F4631912.90784649
tp270
(dp271
s(F725901.1494469866
F4631511.312989577
tp272
(dp273
s(F727740.3719835463
F4631264.331597562
tp274
(dp275
s(F728034.1653009783
F4633079.282497208
tp276
(dp277
s(F728384.4201326583
F4632590.299336023
tp278
(dp279
s(F725030.5220191204
F4632188.795378779
tp280
(dp281
s(F729512.0593959909
F4631340.768176898
tp282
(dp283
s(F728817.3739077945
F4634856.158019185
tp284
(dp285
s(F728962.0627664127
F4633112.457004273
tp286
(dp287
s(F724061.8961527605
F4631531.791965361
tp288
(dp289
s(F727518.1855974125
F4632235.71803905
tp290
(dp291
s(F728900.1131181453
F4631841.280856979
tp292
(dp293
s(F728933.5376774925
F4631998.444699472
tp294
(dp295
s(F727736.487501654
F4632446.426251695
tp296
(dp297
s(F728790.5880432061
F4632008.531362715
tp298
(dp299
s(F724870.5928222926
F4633156.451290536
tp300
(dp301
s(F728944.9686424374
F4631152.263791159
tp302
(dp303
s(F728293.0408764548
F4632070.289103353
tp304
(dp305
s(F727804.9283113137
F4633081.626943023
tp306
(dp307
s(F728014.3995625204
F4630650.627222964
tp308
(dp309
s(F727730.9223290035
F4632297.74862613
tp310
(dp311
s(F728544.9608314405
F4631298.502488052
tp312
(dp313
s(F728249.9793428495
F4631703.570101636
tp314
(dp315
s(F724547.4795654535
F4632303.648269719
tp316
(dp317
s(F728423.6760749947
F4630480.533640647
tp318
(dp319
s(F725074.0942129402
F4632077.2710229345
tp320
(dp321
s(F727078.7592654369
F4630895.453916756
tp322
(dp323
s(F724738.5383854043
F4631723.73688523
tp324
(dp325
s(F729017.7362828713
F4633170.599774526
tp326
(dp327
s(F725465.8074068476
F4632670.73294262
tp328
(dp329
s(F728501.9754338262
F4632103.099080149
tp330
(dp331
s(F726602.2264399002
F4630974.897184673
tp332
(dp333
s(F726251.9408204223
F4631348.80979479
tp334
(dp335
s(F727317.0263632541
F4632127.303906278
tp336
(dp337
s(F724941.6666924856
F4630933.590732058
tp338
(dp339
s(F728307.6604702758
F4633364.582260795
tp340
(dp341
s(F725284.9268239368
F4634019.048840103
tp342
(dp343
s(F728955.7979321535
F4631955.2532279305
tp344
(dp345
s(F725595.1891667515
F4632860.111522688
tp346
(dp347
s(F728801.7843468464
F4631599.733513711
tp348
(dp349
s(F726360.1517642636
F4633803.792113558
tp350
(dp351
s(F728334.3095166851
F4630692.088354165
tp352
(dp353
s(F726713.2376079147
F4632587.895247331
tp354
(dp355
s(F724483.1348884697
F4632318.426867637
tp356
(dp357
s(F726476.7471558268
F4632538.380777539
tp358
(dp359
s(F727775.4488190793
F4632247.285191394
tp360
(dp361
s(F727334.4917590246
F4632483.39985325
tp362
(dp363
s(F728398.3156278314
F4631491.2154450845
tp364
(dp365
s(F728005.7003876327
F4631983.94122803
tp366
(dp367
s(F728028.8800985152
F4631668.137400655
tp368
(dp369
s(F727985.1276746566
F4631821.908592874
tp370
(dp371
s(F726846.615433378
F4631724.930683789
tp372
(dp373
s(F727562.3254949934
F4631130.604245016
tp374
(dp375
s(F727737.933509986
F4631615.6103266515
tp376
(dp377
s(F727732.5353298677
F4631991.826355495
tp378
(dp379
s(F728298.9886154645
F4630535.122068846
tp380
(dp381
s(F728416.0452431991
F4630716.378527694
tp382
(dp383
s(F724592.141465068
F4632483.004113668
tp384
(dp385
s(F724761.252566339
F4632116.869504925
tp386
(dp387
s(F727935.2773578016
F4632065.074309645
tp388
(dp389
s(F728461.5517589625
F4632734.26779185
tp390
(dp391
s(F729864.9742571779
F4628945.519893037
tp392
(dp393
s(F728271.3171141271
F4632387.093135622
tp394
(dp395
s(F727998.899583419
F4630635.904539208
tp396
(dp397
s(F727402.8626071409
F4631781.096196294
tp398
(dp399
s(F728965.6743760285
F4631743.377329268
tp400
(dp401
s(F725931.4680210997
F4632250.423800881
tp402
(dp403
s(F729678.2662913396
F4630947.0708854245
tp404
(dp405
s(F728381.087111431
F4631743.648752601
tp406
(dp407
s(F725179.7467832158
F4631230.087638599
tp408
(dp409
s(F727741.0498387511
F4631180.544297418
tp410
(dp411
s(F727744.8260648369
F4631599.042711487
tp412
(dp413
s(F728971.5680986852
F4632212.747349851
tp414
(dp415
s(F727451.52506709
F4632103.00231621
tp416
(dp417
s(F724799.1809815308
F4632042.705297973
tp418
(dp419
s(F728468.7282729447
F4632829.533963107
tp420
(dp421
s(F729776.5617357248
F4633754.1184659675
tp422
(dp423
s(F727661.461909629
F4632267.187655033
tp424
(dp425
s(F727209.1108120229
F4632761.193828724
tp426
(dp427
s(F727921.2775405501
F4633257.853791843
tp428
(dp429
s(F728032.71061219
F4632760.671161956
tp430
(dp431
s(F727971.2397898687
F4631165.885920463
tp432
(dp433
s(F728521.0369477848
F4632419.27447721
tp434
(dp435
s(F727468.735433178
F4632835.899050315
tp436
(dp437
s(F728132.4480723611
F4631292.750041881
tp438
(dp439
s(F727884.8839327868
F4632913.561497866
tp440
(dp441
s(F727012.831276264
F4630996.505185294
tp442
(dp443
s(F728375.4258034241
F4631507.378096166
tp444
(dp445
s(F725900.3449461921
F4633214.670913299
tp446
(dp447
s(F727991.1881340323
F4632301.060040966
tp448
(dp449
s(F726264.6108973448
F4633767.525428516
tp450
(dp451
s(F727773.5613661247
F4631232.934365311
tp452
(dp453
s(F728161.4858910907
F4630813.720352703
tp454
(dp455
s(F728420.1457844215
F4630601.2440257175
tp456
(dp457
s(F727317.9427992324
F4632126.191697331
tp458
(dp459
s(F727979.2314122722
F4632802.644758684
tp460
(dp461
s(F726999.3773050933
F4634232.354082956
tp462
(dp463
s(F727893.8094297142
F4633118.257010953
tp464
(dp465
s(F728521.2580538179
F4632812.098365611
tp466
(dp467
s(F727729.9990457414
F4631232.32212005
tp468
(dp469
s(F724650.5087041763
F4631952.437302046
tp470
(dp471
s(F728239.1895828937
F4631416.542017237
tp472
(dp473
s(F725168.1132012199
F4633450.605034971
tp474
(dp475
s(F728608.4918170609
F4632581.026393562
tp476
(dp477
s(F728021.4737335377
F4632140.120369077
tp478
(dp479
s(F728684.9569593335
F4630711.317789298
tp480
(dp481
s(F729212.6435106986
F4631371.715589921
tp482
(dp483
s(F726203.3036678045
F4633461.915100616
tp484
(dp485
s(F728119.1858354588
F4631747.949240909
tp486
(dp487
s(F728061.8809991396
F4632175.56186292
tp488
(dp489
s(F729567.6577481428
F4632631.839216878
tp490
(dp491
s(F725067.211299603
F4633460.090781249
tp492
(dp493
s(F729429.954683168
F4631250.64945156
tp494
(dp495
s(F728958.6109288177
F4632201.883009868
tp496
(dp497
s(F729201.2805355573
F4633363.680350743
tp498
(dp499
s(F728682.2089037469
F4630633.533536969
tp500
(dp501
s(F728553.4999198893
F4631984.814922466
tp502
(dp503
s(F729068.1863047086
F4631586.383659422
tp504
(dp505
s(F728762.6295774302
F4631843.016164692
tp506
(dp507
s(F725984.0375982595
F4629389.410405695
tp508
(dp509
s(F728444.1319174186
F4632530.410080707
tp510
(dp511
s(F727404.8688828783
F4631444.14685402
tp512
(dp513
s(F729210.4286052225
F4631715.110739043
tp514
(dp515
s(F728483.130829698
F4631530.722516304
tp516
(dp517
s(F727373.152007082
F4631027.427565214
tp518
(dp519
s(F728063.0301295612
F4630656.738218881
tp520
(dp521
s(F727867.7805880614
F4633719.430158036
tp522
(dp523
s(F728633.538580009
F4631908.460396009
tp524
(dp525
s(F727849.4129105412
F4632132.246565969
tp526
(dp527
s(F725138.39745622
F4634012.530779428
tp528
(dp529
s(F725154.5352186314
F4631188.277934591
tp530
(dp531
s(F727733.3421069515
F4631205.75222469
tp532
(dp533
s(F728022.8307989786
F4630686.131958817
tp534
(dp535
s(F727729.4023839523
F4631068.575588884
tp536
(dp537
s(F726475.6063899203
F4632539.998494855
tp538
(dp539
s(F728844.3245670937
F4631715.141496911
tp540
(dp541
s(F726636.1027871186
F4632741.278449635
tp542
(dp543
s(F729822.4053214818
F4632604.917557038
tp544
(dp545
s(F728040.7285173867
F4631943.606029236
tp546
(dp547
s(F724550.8523048126
F4632302.676132171
tp548
(dp549
s(F727560.5284006597
F4631189.568767119
tp550
(dp551
s(F725396.8752380656
F4633407.369826292
tp552
(dp553
s(F728770.6890004126
F4631002.730883477
tp554
(dp555
s(F728179.1365034595
F4632341.697314924
tp556
(dp557
s(F728680.2630826856
F4632178.727404295
tp558
(dp559
s(F729634.0738265726
F4631110.713250199
tp560
(dp561
s(F726345.6542054281
F4633383.068515438
tp562
(dp563
s(F727312.8464071109
F4632132.45915058
tp564
(dp565
s(F727632.957364347
F4631521.111998735
tp566
(dp567
s(F729088.1758663505
F4631272.015041489
tp568
(dp569
s(F727091.5372080798
F4631717.049453734
tp570
(dp571
s(F727977.5889129568
F4631422.740378108
tp572
(dp573
s(F729675.0710133899
F4633518.312213309
tp574
(dp575
s(F724539.7263689208
F4631876.258334423
tp576
(dp577
s(F728421.5210681092
F4631875.659405485
tp578
(dp579
s(F728095.4574558064
F4631880.862325012
tp580
(dp581
s(F725203.4880003525
F4631068.113816458
tp582
(dp583
s(F723349.0547435044
F4633761.29923195
tp584
(dp585
s(F726527.3596068854
F4634080.756968588
tp586
(dp587
s(F728615.4323211496
F4632279.959894167
tp588
(dp589
s(F726169.1880161108
F4632872.843706683
tp590
(dp591
s(F728771.3020417456
F4631541.400841073
tp592
(dp593
s(F727217.378053271
F4631189.082831979
tp594
(dp595
s(F727815.8044348673
F4632124.043413935
tp596
(dp597
s(F727892.1920261204
F4630388.072427527
tp598
(dp599
s(F726396.8222934516
F4633696.250227833
tp600
(dp601
s(F728930.0765292625
F4632755.14893453
tp602
(dp603
s(F729564.8837038452
F4633919.146030051
tp604
(dp605
s(F728321.7955507009
F4632000.738142483
tp606
(dp607
s(F726002.654428205
F4633323.616947633
tp608
(dp609
s(F728101.0273844393
F4632908.68772428
tp610
(dp611
s(F727501.1528820872
F4631570.150343371
tp612
(dp613
s(F724622.006754156
F4632139.27079971
tp614
(dp615
s(F726695.2973779052
F4630823.019350788
tp616
(dp617
s(F727911.9707224206
F4632945.438683092
tp618
(dp619
s(F728704.1888070406
F4632140.5905886125
tp620
(dp621
s(F726608.6155082049
F4632847.4440087
tp622
(dp623
s(F728604.7917315748
F4632296.270615568
tp624
(dp625
s(F728570.550418529
F4632446.75961431
tp626
(dp627
s(F728804.9418171004
F4630432.388758342
tp628
(dp629
s(F726180.5470496845
F4632700.808669806
tp630
(dp631
s(F726679.2320452142
F4632561.583108358
tp632
(dp633
s(F725491.5438263947
F4633439.92869529
tp634
(dp635
s(F727774.2296124296
F4632248.659069085
tp636
(dp637
s(F727904.188254968
F4632405.653728924
tp638
(dp639
s(F729013.4438309981
F4631998.897306046
tp640
(dp641
s(F726368.1235148873
F4632145.779319484
tp642
(dp643
s(F728618.7167365394
F4630881.038737223
tp644
(dp645
s(F726008.4390609307
F4633676.260054162
tp646
(dp647
s(F728101.5996920384
F4632907.7064794125
tp648
(dp649
s(F727226.2841460735
F4633055.625763786
tp650
(dp651
s(F726430.9409596003
F4631020.478873167
tp652
(dp653
s(F728068.1176288077
F4630614.662767228
tp654
(dp655
s(F728664.8643691958
F4630917.863927344
tp656
(dp657
s(F723473.1595553795
F4632931.465369329
tp658
(dp659
s(F727565.5289352797
F4631382.243923443
tp660
(dp661
s(F729185.2926239066
F4631350.607051305
tp662
(dp663
s(F724945.2539824693
F4633006.308413825
tp664
(dp665
s(F727995.8607604454
F4633148.640090804
tp666
(dp667
s(F727216.6420967213
F4631546.52384121
tp668
(dp669
s(F728314.0865971061
F4630502.592576575
tp670
(dp671
s(F729656.7098364823
F4630694.167646158
tp672
(dp673
s(F727898.4326808064
F4632929.333516858
tp674
(dp675
s(F724963.391528518
F4634473.725525812
tp676
(dp677
s(F726287.580718046
F4632786.78882651
tp678
(dp679
s(F729012.5096368955
F4630485.952190727
tp680
(dp681
s(F726492.2061906102
F4633467.861842199
tp682
(dp683
s(F727446.074310411
F4632118.565068769
tp684
(dp685
s(F728991.7593916691
F4631573.259732309
tp686
(dp687
s(F728240.0166194064
F4632727.677658365
tp688
(dp689
s(F729531.8438617149
F4633935.644825345
tp690
(dp691
s(F726615.5046853792
F4631541.522963035
tp692
(dp693
s(F726525.8003416518
F4632650.965273109
tp694
(dp695
s(F727593.6692021153
F4631678.584297002
tp696
(dp697
s(F729230.5728435717
F4631383.1846328955
tp698
(dp699
s(F725976.7996902687
F4633512.421114313
tp700
(dp701
s(F724658.7622777099
F4631959.699596804
tp702
(dp703
s(F728166.0843970547
F4632324.8441856485
tp704
(dp705
s(F731199.4938504525
F4630957.840961872
tp706
(dp707
s(F725977.0630058948
F4633514.992326622
tp708
(dp709
s(F727518.184219662
F4632235.717757232
tp710
(dp711
s(F728825.3748999396
F4631955.043469165
tp712
(dp713
s(F727745.6430894894
F4631294.622136245
tp714
(dp715
s(F728467.6389156752
F4631830.118174891
tp716
(dp717
s(F728414.5658626399
F4631711.0409979075
tp718
(dp719
s(F725916.0414234584
F4632960.632804432
tp720
(dp721
s(F727189.6187861799
F4632034.731895083
tp722
(dp723
s(F728508.6495154193
F4632086.862135807
tp724
(dp725
s(F726400.389735997
F4633667.686420177
tp726
(dp727
s(F726362.1082355758
F4633254.988686624
tp728
(dp729
s(F727882.0055880835
F4633362.749923751
tp730
(dp731
s(F726289.5992196501
F4632785.639860204
tp732
(dp733
s(F728873.1673577781
F4631881.574673017
tp734
(dp735
s(F728797.099659346
F4631787.321910296
tp736
(dp737
s(F728286.7189687737
F4630520.835522417
tp738
(dp739
s(F728331.0772181919
F4630707.324059718
tp740
(dp741
s(F728575.3359261854
F4631796.442371214
tp742
(dp743
s(F727325.207608375
F4630662.98927952
tp744
(dp745
s(F730136.9798474425
F4633015.108355239
tp746
(dp747
s(F728424.570723455
F4631458.265295695
tp748
(dp749
s(F727843.0896611041
F4632170.614616393
tp750
(dp751
s(F728225.8264014801
F4630677.0587361725
tp752
(dp753
s(F727767.0900048219
F4632120.836734954
tp754
(dp755
s(F726064.609339201
F4630086.872348658
tp756
(dp757
s(F727417.1031963971
F4632432.68001016
tp758
(dp759
s(F729385.4503112381
F4631206.868969908
tp760
(dp761
s(F728545.0466901592
F4632697.705391532
tp762
(dp763
s(F728147.1224198302
F4632273.190092046
tp764
(dp765
s(F726318.2611754737
F4633358.07927658
tp766
(dp767
s(F726517.9151834664
F4632781.4288909845
tp768
(dp769
s(F727583.7654418792
F4631345.0337482495
tp770
(dp771
s(F729233.8966447223
F4633463.878577556
tp772
(dp773
s(F728241.62687238
F4630422.245901344
tp774
(dp775
s(F728028.8800985152
F4631668.137400657
tp776
(dp777
s(F727548.1902871036
F4631315.666566696
tp778
(dp779
s(F728380.6059180142
F4632487.695348086
tp780
(dp781
s(F728457.883212416
F4632511.287469881
tp782
(dp783
s(F727843.1275142595
F4632170.566605018
tp784
(dp785
s(F727919.1128365126
F4632237.845133024
tp786
(dp787
s(F728203.1606626901
F4632359.313082784
tp788
(dp789
s(F728545.8465884556
F4630824.128591656
tp790
(dp791
s(F727922.941355062
F4633013.259133458
tp792
(dp793
s(F724657.6473082518
F4631958.7185370345
tp794
(dp795
s(F727704.5252371902
F4632283.2342211725
tp796
(dp797
s(F729658.6308007092
F4630691.33944068
tp798
(dp799
s(F725773.6140886999
F4631454.813526391
tp800
(dp801
s(F729640.5023638355
F4630722.212854114
tp802
(dp803
s(F727643.4430953368
F4632727.562433023
tp804
(dp805
s(F726997.941714454
F4634229.313977048
tp806
(dp807
s(F728189.7557361568
F4633203.526521896
tp808
(dp809
s(F728011.8029704535
F4632132.210679294
tp810
(dp811
s(F726678.0954639415
F4632654.914284366
tp812
(dp813
s(F725081.9102351557
F4633866.252217513
tp814
(dp815
s(F726379.8479708114
F4633754.2881173305
tp816
(dp817
s(F729109.5490611134
F4631523.353480334
tp818
(dp819
s(F728687.3436717491
F4631545.2675764905
tp820
(dp821
s(F727802.978240897
F4632351.179509729
tp822
(dp823
s(F725026.6095814506
F4632188.034203262
tp824
(dp825
s(F726615.6810014477
F4632724.51262158
tp826
(dp827
s(F728070.4692057244
F4631909.46419039
tp828
(dp829
s(F728544.1972221225
F4631828.679746407
tp830
(dp831
s(F728194.0195982729
F4630477.745148748
tp832
(dp833
s(F724482.5949015499
F4632317.61162436
tp834
(dp835
s(F727381.3368807395
F4633082.448028645
tp836
(dp837
s(F728454.9539764317
F4631221.036567812
tp838
(dp839
s(F725016.95398938
F4633961.902813891
tp840
(dp841
s(F727888.2274373128
F4633579.14146503
tp842
(dp843
ssS'graph'
p844
(dp845
sS'edge'
p846
(dp847
g8
(dp848
(F725916.0414234584
F4632960.632804432
tp849
(dp850
I0
(dp851
S'weight'
p852
F47.89138471905119
sss(F726169.1880161108
F4632872.843706683
tp853
(dp854
I0
(dp855
g852
F220.10169099454458
ssssg10
(dp856
(F728025.9088060168
F4631216.963775945
tp857
(dp858
I0
(dp859
g852
F59.771397838633916
sss(F727977.5889129568
F4631422.740378108
tp860
(dp861
I0
(dp862
g852
F153.10876097015637
ssssg12
(dp863
g76
(dp864
I0
(dp865
g852
F226.68774000853287
sss(F729512.0593959909
F4631340.768176898
tp866
(dp867
I0
(dp868
g852
F134.9068933129657
sss(F729429.954683168
F4631250.64945156
tp869
(dp870
I0
(dp871
g852
F172.1614577097801
ssssg14
(dp872
(F726685.8531262018
F4631599.444357995
tp873
(dp874
I0
(dp875
g852
F176.2577943173194
sssg214
(dp876
I0
(dp877
g852
F697.9722711422003
sss(F726846.615433378
F4631724.930683789
tp878
(dp879
I0
(dp880
g852
F28.130818392798517
ssssg16
(dp881
(F727774.2353016367
F4632248.668129582
tp882
(dp883
I0
(dp884
g852
F1.83889893685192
sss(F727843.0896611041
F4632170.614616393
tp885
(dp886
I0
(dp887
g852
F102.24412988323888
ssssg18
(dp888
g188
(dp889
I0
(dp890
g852
F128.67249131590978
sss(F724945.2539824693
F4633006.308413825
tp891
(dp892
I0
(dp893
g852
F502.15022816390797
sss(F725166.6456046148
F4632227.576128729
tp894
(dp895
I0
(dp896
g852
F625.7560028348698
ssssg20
(dp897
(F726042.5418736974
F4633688.900763541
tp898
(dp899
I0
(dp900
g852
F181.8136927165988
sss(F726203.3036678045
F4633461.915100616
tp901
(dp902
I0
(dp903
g852
F298.822528209109
sss(F726264.6108973448
F4633767.525428516
tp904
(dp905
I0
(dp906
g852
F53.764986628410384
ssssg22
(dp907
(F725595.1891667515
F4632860.111522688
tp908
(dp909
I0
(dp910
g852
F210.43817169326917
sss(F725721.7056098223
F4633105.644505014
tp911
(dp912
I0
(dp913
g852
F73.33249650329861
sss(F725916.0414234584
F4632960.632804432
tp914
(dp915
I0
(dp916
g852
F227.94136246606345
ssssg24
(dp917
(F724321.6679559291
F4632075.024204837
tp918
(dp919
I0
(dp920
g852
F4.494352940505145
sss(F724482.5949015499
F4632317.61162436
tp921
(dp922
I0
(dp923
g852
F287.35666325773263
ssssg26
(dp924
g636
(dp925
I0
(dp926
g852
F1.837045001667416
ssssg28
(dp927
g240
(dp928
I0
(dp929
g852
F1671.8500857140136
sss(F726008.4390609307
F4633676.260054162
tp930
(dp931
I0
(dp932
g852
F36.37084910577372
sss(F726213.9693830318
F4633749.468231625
tp933
g899
ssg30
(dp934
(F727741.0498387511
F4631180.544297418
tp935
(dp936
I0
(dp937
g852
F235.10580874944372
sssg190
(dp938
I0
(dp939
g852
F80.72640533291975
ssssg32
(dp940
(F725901.1494469866
F4631511.312989577
tp941
(dp942
I0
(dp943
g852
F142.928789265148
sssg800
(dp944
I0
(dp945
g852
F21.513282523128595
sss(F725203.4880003525
F4631068.113816458
tp946
(dp947
I0
(dp948
g852
F753.7673701380019
ssssg34
(dp949
(F728249.9793428495
F4631703.570101636
tp950
(dp951
I0
(dp952
g852
F38.66906066702583
sssg70
(dp953
I0
(dp954
g852
F81.33002872866075
ssssg36
(dp955
g368
(dp956
I0
(dp957
g852
F0.742875914468895
ssssg38
(dp958
(F727319.2082004835
F4632125.336194404
tp959
(dp960
I0
(dp961
g852
F23.881490572260958
sssg684
(dp962
I0
(dp963
g852
F106.49836980517907
ssssg40
(dp964
g348
(dp965
I0
(dp966
g852
F145.41433325282063
sssg736
(dp967
I0
(dp968
g852
F98.65980472638026
ssssg42
(dp969
g764
(dp970
I0
(dp971
g852
F40.87079301218954
sss(F728166.0843970547
F4632324.8441856485
tp972
(dp973
I0
(dp974
g852
F14.246214784118045
ssssg44
(dp975
(F728034.1653009783
F4633079.282497208
tp976
(dp977
I0
(dp978
g852
F67.18663418066158
sssg666
(dp979
I0
(dp980
g852
F19.50775466026323
sss(F728013.1524080249
F4633148.748295793
tp981
(dp982
I0
(dp983
g852
F5.388182530113163
ssssg46
(dp984
(F727745.6430894894
F4631294.622136245
tp985
(dp986
I0
(dp987
g852
F299.7475530279037
sss(F727685.0132996463
F4631526.552047027
tp988
(dp989
I0
(dp990
g852
F6.289346774660189
ssssg48
(dp991
g804
(dp992
I0
(dp993
g852
F189.5822367090016
sssg296
(dp994
I0
(dp995
g852
F207.00460340932815
sssg638
(dp996
I0
(dp997
g852
F240.18073153202224
ssssg50
(dp998
(F725465.8074068476
F4632670.73294262
tp999
(dp1000
I0
(dp1001
g852
F239.34791241099455
ssssg52
(dp1002
g754
(dp1003
I0
(dp1004
g852
F136.46365356991035
sssg424
(dp1005
I0
(dp1006
g852
F51.83286383256639
sss(F727446.074310411
F4632118.565068769
tp1007
(dp1008
I0
(dp1009
g852
F254.2305361142384
ssssg54
(dp1010
g818
(dp1011
I0
(dp1012
g852
F112.50968412882519
ssssg56
(dp1013
(F727774.2296124296
F4632248.659069085
tp1014
(dp1015
I0
(dp1016
g852
F65.4643169282299
ssssg58
(dp1017
g62
(dp1018
I0
(dp1019
g852
F5.074481785630407
sssg152
(dp1020
I0
(dp1021
g852
F31.930370524817377
sssg18
g895
ssg60
(dp1022
g202
(dp1023
I0
(dp1024
g852
F163.37534069970056
ssI1
(dp1025
g852
F163.37534069970056
ssI2
(dp1026
g852
F163.37534069970056
sssg412
(dp1027
I0
(dp1028
g852
F69.16164577660835
sssg160
(dp1029
I0
(dp1030
g852
F31.730575936683472
ssssg62
(dp1031
g58
g1018
s(F725824.2050481692
F4631624.807255327
tp1032
(dp1033
I0
(dp1034
g852
F896.0687731960273
sss(F725030.5220191204
F4632188.795378779
tp1035
(dp1036
I0
(dp1037
g852
F139.12632250766242
ssssg64
(dp1038
g676
(dp1039
I0
(dp1040
g852
F325.80274951247765
sssg840
(dp1041
I0
(dp1042
g852
F707.8843177456447
ssssg66
(dp1043
g272
(dp1044
I0
(dp1045
g852
F269.291489082418
ssI1
(dp1046
g852
F139.26450193570207
sss(F725164.7990262255
F4632222.849553473
tp1047
g1033
ssg68
(dp1048
g634
(dp1049
I0
(dp1050
g852
F410.1001089305104
sss(F725976.7996902687
F4633512.421114313
tp1051
(dp1052
I0
(dp1053
g852
F520.321010829966
sssg22
g912
ssg70
(dp1054
g34
g953
s(F728119.1858354588
F4631747.949240909
tp1055
(dp1056
I0
(dp1057
g852
F69.66982264212174
sssg580
(dp1058
I0
(dp1059
g852
F115.18124893516917
ssssg72
(dp1060
(F727737.933509986
F4631615.6103266515
tp1061
(dp1062
I0
(dp1063
g852
F234.07127942661606
sssg220
(dp1064
I0
(dp1065
g852
F180.0913262926635
ssssg74
(dp1066
(F729385.4503112381
F4631206.868969908
tp1067
(dp1068
I0
(dp1069
g852
F314.66984163892795
sssg208
(dp1070
I0
(dp1071
g852
F146.7520353780798
sssg802
(dp1072
I0
(dp1073
g852
F295.8961724307381
ssssg76
(dp1074
(F729391.2088385731
F4631384.789785755
tp1075
g864
sg158
(dp1076
I0
(dp1077
g852
F158.5163661086649
sss(F729212.6435106986
F4631371.715589921
tp1078
(dp1079
I0
(dp1080
g852
F5.045722314311144
ssssg78
(dp1081
g688
(dp1082
I0
(dp1083
g852
F0.964519981234343
sss(F728384.4201326583
F4632590.299336023
tp1084
(dp1085
I0
(dp1086
g852
F198.64555072108007
sssg244
(dp1087
I0
(dp1088
g852
F147.84770786463451
ssssg80
(dp1089
g662
(dp1090
I0
(dp1091
g852
F366.71087631108117
sss(F728969.4360062843
F4631112.756734935
tp1092
(dp1093
I0
(dp1094
g852
F106.64115990250752
ssssg82
(dp1095
g170
(dp1096
I0
(dp1097
g852
F63.62197737682299
sss(F727775.4506711953
F4632247.288120112
tp1098
g883
ssg84
(dp1099
(F727189.6187861799
F4632034.731895083
tp1100
(dp1101
I0
(dp1102
g852
F529.6805840399928
sss(F727216.6420967213
F4631546.52384121
tp1103
(dp1104
I0
(dp1105
g852
F36.355313831708884
sss(F727404.8688828783
F4631444.14685402
tp1106
(dp1107
I0
(dp1108
g852
F177.98634025529088
ssssg86
(dp1109
(F727325.207608375
F4630662.98927952
tp1110
(dp1111
I0
(dp1112
g852
F100.71568597766823
ssssg88
(dp1113
(F729178.9132283742
F4631991.98381625
tp1114
(dp1115
I0
(dp1116
g852
F169.57158944626048
sssg514
(dp1117
I0
(dp1118
g852
F210.07374913087256
sssg400
(dp1119
I0
(dp1120
g852
F158.12758066631343
ssssg90
(dp1121
g314
(dp1122
I0
(dp1123
g852
F53.293810493684845
sss(F728318.3565299821
F4631624.819116834
tp1124
(dp1125
I0
(dp1126
g852
F50.999812236031914
ssssg92
(dp1127
(F728944.9686424374
F4631152.263791159
tp1128
(dp1129
I0
(dp1130
g852
F46.61838460466159
sss(F729067.0179315833
F4631103.775535202
tp1131
g1093
ssg94
(dp1132
(F728545.0466901592
F4632697.705391532
tp1133
(dp1134
I0
(dp1135
g852
F70.87408013943434
sssg466
(dp1136
I0
(dp1137
g852
F48.46555136409254
sssg390
(dp1138
I0
(dp1139
g852
F64.67370597274187
ssssg96
(dp1140
g254
(dp1141
I0
(dp1142
g852
F84.73285618534183
sss(F728483.130829698
F4631530.722516304
tp1143
(dp1144
I0
(dp1145
g852
F210.4701234551378
sssg718
(dp1146
I0
(dp1147
g852
F5.198839598842575
ssssg98
(dp1148
g288
(dp1149
I0
(dp1150
g852
F1033.971498595616
ssssg100
(dp1151
g828
(dp1152
I0
(dp1153
g852
F16.820866073439458
sss(F728293.0408764548
F4632070.289103353
tp1154
(dp1155
I0
(dp1156
g852
F282.5891174052685
ssI1
(dp1157
g852
F282.5891174052685
sss(F728095.4574558064
F4631880.862325012
tp1158
(dp1159
I0
(dp1160
g852
F21.159120617556358
ssssg102
(dp1161
(F727661.461909629
F4632267.187655033
tp1162
(dp1163
I0
(dp1164
g852
F243.10514539552528
sss(F727209.1108120229
F4632761.193828724
tp1165
(dp1166
I0
(dp1167
g852
F451.2311672244994
sss(F727417.1031963971
F4632432.68001016
tp1168
(dp1169
I0
(dp1170
g852
F121.42985092862048
ssssg104
(dp1171
g132
(dp1172
I0
(dp1173
g852
F1.531129061403318
sssg336
(dp1174
I0
(dp1175
g852
F1.440745001468647
ssssg106
(dp1176
g492
(dp1177
I0
(dp1178
g852
F54.900334999901276
ssssg108
(dp1179
(F727548.1902871036
F4631315.666566696
tp1180
(dp1181
I0
(dp1182
g852
F126.99792735076183
sss(F727562.3254949934
F4631130.604245016
tp1183
(dp1184
I0
(dp1185
g852
F58.99213611688758
ssssg110
(dp1186
g370
(dp1187
I0
(dp1188
g852
F125.19135428327485
ssssg112
(dp1189
g134
(dp1190
I0
(dp1191
g852
F130.72002517546167
ssssg114
(dp1192
(F728801.7843468464
F4631599.733513711
tp1193
(dp1194
I0
(dp1195
g852
F215.20189909429894
sss(F729068.1863047086
F4631586.383659422
tp1196
(dp1197
I0
(dp1198
g852
F156.87164666352882
sss(F728965.6743760285
F4631743.377329268
tp1199
(dp1200
I0
(dp1201
g852
F30.642285454690743
ssssg116
(dp1202
(F727888.2274373128
F4633579.14146503
tp1203
(dp1204
I0
(dp1205
g852
F1065.9375787291751
ssssg118
(dp1206
(F728032.71061219
F4632760.671161956
tp1207
(dp1208
I0
(dp1209
g852
F80.86858575684697
sss(F728126.2493309983
F4632677.5637611495
tp1210
(dp1211
I0
(dp1212
g852
F44.47835994876593
ssssg120
(dp1213
(F724061.8961527605
F4631531.791965361
tp1214
(dp1215
I0
(dp1216
g852
F605.3681143817648
sss(F724323.8752065112
F4632078.939208441
tp1217
g919
s(F724539.7263689208
F4631876.258334423
tp1218
(dp1219
I0
(dp1220
g852
F297.57390191772663
ssssg122
(dp1221
(F727997.2381720252
F4630648.856320788
tp1222
(dp1223
I0
(dp1224
g852
F7.244646962452042
ssssg124
(dp1225
g476
(dp1226
I0
(dp1227
g852
F88.21967275811664
sssg602
(dp1228
I0
(dp1229
g852
F372.80899890587517
sss(F728570.550418529
F4632446.75961431
tp1230
(dp1231
I0
(dp1232
g852
F103.17593118569107
ssssg126
(dp1233
g346
(dp1234
I0
(dp1235
g852
F393.6774865541126
ssssg128
(dp1236
g394
(dp1237
I0
(dp1238
g852
F113.44139428150942
sss(F728380.6059180142
F4632487.695348086
tp1239
(dp1240
I0
(dp1241
g852
F50.709652598825514
sss(F727904.188254968
F4632405.653728924
tp1242
(dp1243
I0
(dp1244
g852
F444.6226674641738
ssssg130
(dp1245
g570
(dp1246
I0
(dp1247
g852
F123.9378320412011
sssg372
(dp1248
I0
(dp1249
g852
F276.4706637826822
sss(F727216.6420967213
F4631546.52384121
tp1250
(dp1251
I0
(dp1252
g852
F135.16708638234488
ssssg132
(dp1253
(F727340.1646127907
F4632114.151579405
tp1254
g960
sg104
g1172
ssg134
(dp1255
g112
g1190
ssg136
(dp1256
(F726318.2611754737
F4633358.07927658
tp1257
(dp1258
I0
(dp1259
g852
F47.2278941385775
sss(F726203.3036678045
F4633461.915100616
tp1260
(dp1261
I0
(dp1262
g852
F315.97473369814986
sssg728
(dp1263
I0
(dp1264
g852
F66.26777716235149
ssssg138
(dp1265
g144
(dp1266
I0
(dp1267
g852
F148.9166539101413
sss(F728962.0627664127
F4633112.457004273
tp1268
(dp1269
I0
(dp1270
g852
F5.948643742529445
ssssg140
(dp1271
g262
(dp1272
I0
(dp1273
g852
F332.2647570937348
sss(F728423.6760749947
F4630480.533640647
tp1274
(dp1275
I0
(dp1276
g852
F30.152172757218164
sss(F728298.9886154645
F4630535.122068846
tp1277
(dp1278
I0
(dp1279
g852
F107.39402426911276
ssssg142
(dp1280
g672
(dp1281
I0
(dp1282
g852
F790.5542349619792
ssssg144
(dp1283
(F728965.9116623506
F4633107.92132765
tp1284
g1266
s(F728930.0765292625
F4632755.14893453
tp1285
(dp1286
I0
(dp1287
g852
F236.9164898770029
ssssg146
(dp1288
(F728375.4258034241
F4631507.378096166
tp1289
(dp1290
I0
(dp1291
g852
F130.5872495730361
sss(F728414.5658626399
F4631711.0409979075
tp1292
(dp1293
I0
(dp1294
g852
F129.19568365645847
sssg90
g1125
ssg148
(dp1295
(F727226.2841460735
F4633055.625763786
tp1296
(dp1297
I0
(dp1298
g852
F129.37346500710322
sss(F727209.1108120229
F4632761.193828724
tp1299
(dp1300
I0
(dp1301
g852
F364.6759523813873
ssssg150
(dp1302
g692
(dp1303
I0
(dp1304
g852
F307.0290978841374
ssssg152
(dp1305
(F725166.6456046148
F4632227.576128729
tp1306
g1020
sg328
(dp1307
I0
(dp1308
g852
F535.4483776718264
ssssg154
(dp1309
g590
(dp1310
I0
(dp1311
g852
F167.87139653925027
ssssg156
(dp1312
g778
(dp1313
I0
(dp1314
g852
F45.12324293013229
sss(F727583.7654418792
F4631345.0337482495
tp1315
(dp1316
I0
(dp1317
g852
F5.074648954392534
ssI1
(dp1318
g852
F5.074648954392534
sssg532
(dp1319
I0
(dp1320
g852
F237.46741042747368
ssI1
(dp1321
g852
F237.46741042747368
ssssg158
(dp1322
(F729109.5490611134
F4631523.353480334
tp1323
(dp1324
I0
(dp1325
g852
F20.087352316422418
sss(F729209.4409303941
F4631375.614266914
tp1326
g1076
ssg160
(dp1327
(F727696.4856245794
F4631555.373154681
tp1328
g1029
s(F727689.7435908804
F4631522.407143205
tp1329
g989
s(F727632.957364347
F4631521.111998735
tp1330
(dp1331
I0
(dp1332
g852
F53.996111183261895
ssssg162
(dp1333
(F726679.2320452142
F4632561.583108358
tp1334
(dp1335
I0
(dp1336
g852
F31.58769459220511
ssssg164
(dp1337
(F726636.1027871186
F4632741.278449635
tp1338
(dp1339
I0
(dp1340
g852
F138.70343994513271
ssssg166
(dp1341
(F726569.0803057437
F4632686.352230362
tp1342
(dp1343
I0
(dp1344
g852
F22.097043296032066
sssg768
(dp1345
I0
(dp1346
g852
F105.99477475336795
sss(F726615.6810014477
F4632724.51262158
tp1347
(dp1348
I0
(dp1349
g852
F38.136304200961305
ssssg168
(dp1350
g308
(dp1351
I0
(dp1352
g852
F563.6848238494994
sssg536
(dp1353
I0
(dp1354
g852
F164.5748004923755
sss(F727562.3254949934
F4631130.604245016
tp1355
(dp1356
I0
(dp1357
g852
F143.46554979677978
ssssg170
(dp1358
g82
g1096
sg310
(dp1359
I0
(dp1360
g852
F1.837335293833071
ssssg172
(dp1361
g508
(dp1362
I0
(dp1363
g852
F452.0930488242228
sss(F726064.609339201
F4630086.872348658
tp1364
(dp1365
I0
(dp1366
g852
F491.8283349300552
sssg224
(dp1367
I0
(dp1368
g852
F1993.8566461145042
ssssg174
(dp1369
(F726527.3596068854
F4634080.756968588
tp1370
(dp1371
I0
(dp1372
g852
F129.559989092176
sss(F726999.3773050933
F4634232.354082956
tp1373
(dp1374
I0
(dp1375
g852
F465.2430162144076
sss(F726360.1517642636
F4633803.792113558
tp1376
(dp1377
I0
(dp1378
g852
F307.25982982413007
ssssg176
(dp1379
(F724945.2539824693
F4633006.308413825
tp1380
(dp1381
I0
(dp1382
g852
F408.822224258251
sssg474
(dp1383
I0
(dp1384
g852
F152.19560366535765
sss(F725396.8752380656
F4633407.369826292
tp1385
(dp1386
I0
(dp1387
g852
F207.0481773022187
ssssg178
(dp1388
g620
(dp1389
I0
(dp1390
g852
F339.51545870790625
sss(F728971.5680986852
F4632212.747349851
tp1391
(dp1392
I0
(dp1393
g852
F12.209432769627398
sss(F728958.6109288177
F4632201.883009868
tp1394
(dp1395
I0
(dp1396
g852
F11.838876695414019
ssssg180
(dp1397
g746
(dp1398
I0
(dp1399
g852
F708.4504060086474
ssssg182
(dp1400
(F727565.2380166536
F4631605.206145283
tp1401
(dp1402
I0
(dp1403
g852
F67.38160654332893
ssssg184
(dp1404
(F727593.6692021153
F4631678.584297002
tp1405
(dp1406
I0
(dp1407
g852
F220.51645504289894
sssg238
(dp1408
I0
(dp1409
g852
F196.14799867930705
sssg398
(dp1410
I0
(dp1411
g852
F138.25426192096978
ssssg186
(dp1412
(F728011.8029704535
F4632132.210679294
tp1413
(dp1414
I0
(dp1415
g852
F7.600636518857685
sss(F727935.2773578016
F4632065.074309645
tp1416
(dp1417
I0
(dp1418
g852
F94.20069227486212
ssssg188
(dp1419
(F724483.1348884697
F4632318.426867637
tp1420
(dp1421
I0
(dp1422
g852
F197.90857135314903
sss(F724663.5897541778
F4632590.623597024
tp1423
g889
ssg190
(dp1424
(F728022.6800876785
F4631276.570257836
tp1425
g858
s(F727971.2397797378
F4631165.885940926
tp1426
g938
sg432
(dp1427
I0
(dp1428
g852
F318.94422671027877
ssssg192
(dp1429
(F729017.7362828713
F4633170.599774526
tp1430
(dp1431
I0
(dp1432
g852
F266.25139474860663
ssssg194
(dp1433
g462
(dp1434
I0
(dp1435
g852
F2823.223938939234
ssssg196
(dp1436
g342
(dp1437
I0
(dp1438
g852
F143.9533034226636
ssssg198
(dp1439
(F724761.252566339
F4632116.869504925
tp1440
(dp1441
I0
(dp1442
g852
F63.608539799345955
sss(F724622.006754156
F4632139.27079971
tp1443
(dp1444
I0
(dp1445
g852
F80.02521995704586
ssssg200
(dp1446
(F727893.8094297142
F4633118.257010953
tp1447
(dp1448
I0
(dp1449
g852
F49.468240730139776
sss(F727804.9283113137
F4633081.626943023
tp1450
(dp1451
I0
(dp1452
g852
F47.23928500921509
ssssg202
(dp1453
g60
g1023
sg182
g1402
sg660
(dp1454
I0
(dp1455
g852
F250.0475758121194
ssI1
(dp1456
g852
F250.0475758121194
ssI2
(dp1457
g852
F250.0475758121194
ssssg204
(dp1458
(F726525.8003416518
F4632650.965273109
tp1459
(dp1460
I0
(dp1461
g852
F142.08169064775598
ssssg206
(dp1462
g426
(dp1463
I0
(dp1464
g852
F475.888943862206
ssssg208
(dp1465
(F729600.7494761918
F4631014.159328508
tp1466
g1070
ssg210
(dp1467
(F727882.0055880835
F4633362.749923751
tp1468
(dp1469
I0
(dp1470
g852
F98.64463638169072
sss(F728013.1524080249
F4633148.748295793
tp1471
(dp1472
I0
(dp1473
g852
F160.47062928648353
sssg842
(dp1474
I0
(dp1475
g852
F294.79956297869137
ssssg212
(dp1476
(F726289.5992196501
F4632785.639860204
tp1477
(dp1478
I0
(dp1479
g852
F253.80370058596264
sssg694
(dp1480
I0
(dp1481
g852
F101.09102189012214
sss(F726475.6063899203
F4632539.998494855
tp1482
(dp1483
I0
(dp1484
g852
F56.43991739965119
ssssg214
(dp1485
g14
g876
s(F727189.6187861799
F4632034.731895083
tp1486
(dp1487
I0
(dp1488
g852
F326.96798141410625
sss(F726846.615433378
F4631724.930683789
tp1489
(dp1490
I0
(dp1491
g852
F137.07502320847786
ssssg216
(dp1492
(F727468.735433178
F4632835.899050315
tp1493
(dp1494
I0
(dp1495
g852
F83.84896396657797
sss(F727226.2841460735
F4633055.625763786
tp1496
(dp1497
I0
(dp1498
g852
F336.6018517704699
ssssg218
(dp1499
(F728307.6604702758
F4633364.582260795
tp1500
(dp1501
I0
(dp1502
g852
F367.0676846051617
sss(F727955.6112231173
F4633297.076681268
tp1503
g1472
s(F728014.6482978611
F4633143.571924035
tp1504
g982
ssg220
(dp1505
g72
g1064
sg378
(dp1506
I0
(dp1507
g852
F23.184229176645985
ssssg222
(dp1508
g654
(dp1509
I0
(dp1510
g852
F193.39537339369497
sssg832
(dp1511
I0
(dp1512
g852
F99.55537107795476
sss(F728298.9886154645
F4630535.122068846
tp1513
(dp1514
I0
(dp1515
g852
F64.06808859833006
ssssg224
(dp1516
(F726307.4487018035
F4629660.857193117
tp1517
g1367
s(F728063.0301295612
F4630656.738218881
tp1518
(dp1519
I0
(dp1520
g852
F66.26607821280774
sssg122
g1223
ssg226
(dp1521
(F726615.5046853792
F4631541.522963035
tp1522
(dp1523
I0
(dp1524
g852
F91.12586156433322
sssg642
(dp1525
I0
(dp1526
g852
F632.0640169035764
sss(F726826.2756694907
F4631705.499430151
tp1527
g874
ssg228
(dp1528
(F728147.1224198302
F4632273.190092046
tp1529
(dp1530
I0
(dp1531
g852
F63.24204512438008
sssg488
(dp1532
I0
(dp1533
g852
F68.85396962124517
ssssg230
(dp1534
g578
(dp1535
I0
(dp1536
g852
F117.84287527926759
sss(F728381.087111431
F4631743.648752601
tp1537
(dp1538
I0
(dp1539
g852
F65.83205199781132
ssssg232
(dp1540
(F727775.4488190793
F4632247.285191394
tp1541
(dp1542
I0
(dp1543
g852
F2.81833891311461
ssssg234
(dp1544
g414
(dp1545
I0
(dp1546
g852
F358.5416588504418
sss(F729822.4053214818
F4632604.917557038
tp1547
(dp1548
I0
(dp1549
g852
F960.966992894426
sss(F729068.5282015018
F4631863.279299082
tp1550
g1115
ssg236
(dp1551
g456
(dp1552
I0
(dp1553
g852
F164.59721652387213
ssssg238
(dp1554
(F727451.0649473364
F4631651.695364726
tp1555
g1408
sg512
(dp1556
I0
(dp1557
g852
F23.67669932664676
ssI1
(dp1558
g852
F23.67669932664676
ssI2
(dp1559
g852
F23.67669932664676
ssssg240
(dp1560
g28
g928
ssg242
(dp1561
(F727217.378053271
F4631189.082831979
tp1562
(dp1563
I0
(dp1564
g852
F143.2705004706184
ssssg244
(dp1565
(F728094.3459866289
F4632708.5489696525
tp1566
g1211
s(F728240.6765748361
F4632726.974268271
tp1567
g1087
ssg246
(dp1568
(F728028.8800985152
F4631668.137400657
tp1569
(dp1570
I0
(dp1571
g852
F0.742875910687335
sssg486
(dp1572
I0
(dp1573
g852
F119.77706422102236
ssssg248
(dp1574
(F726586.181130031
F4632700.344775771
tp1575
g1343
s(F726525.8003416518
F4632650.965273109
tp1576
(dp1577
I0
(dp1578
g852
F55.90589477756352
sssg632
(dp1579
I0
(dp1580
g852
F166.435430139716
ssssg250
(dp1581
g790
(dp1582
I0
(dp1583
g852
F235.71567665925966
ssssg252
(dp1584
(F725154.5352186314
F4631188.277934591
tp1585
(dp1586
I0
(dp1587
g852
F239.548647537385
ssssg254
(dp1588
(F728418.4471356437
F4631714.499849313
tp1589
g1141
s(F728544.1972221225
F4631828.679746407
tp1590
(dp1591
I0
(dp1592
g852
F85.12061110833757
ssssg256
(dp1593
g674
(dp1594
I0
(dp1595
g852
F145.60048364366077
ssssg258
(dp1596
(F724738.5383854043
F4631723.73688523
tp1597
(dp1598
I0
(dp1599
g852
F14.755465835881939
sss(F724658.7622777099
F4631959.699596804
tp1600
(dp1601
I0
(dp1602
g852
F740.4081319457098
sss(F724539.7263689208
F4631876.258334423
tp1603
(dp1604
I0
(dp1605
g852
F255.42075912926617
ssssg260
(dp1606
g776
(dp1607
I0
(dp1608
g852
F166.10123594128157
sss(F727977.5889129568
F4631422.740378108
tp1609
(dp1610
I0
(dp1611
g852
F97.25806938125608
sssg266
(dp1612
I0
(dp1613
g852
F140.53208965293493
ssssg262
(dp1614
g140
g1272
ssg264
(dp1615
(F728239.1895828937
F4631416.542017237
tp1616
(dp1617
I0
(dp1618
g852
F227.86584276042214
sss(F728028.8800985152
F4631668.137400657
tp1619
(dp1620
I0
(dp1621
g852
F140.18807943462238
sssg572
(dp1622
I0
(dp1623
g852
F177.57588800633803
ssssg266
(dp1624
(F727744.8260648369
F4631599.042711487
tp1625
(dp1626
I0
(dp1627
g852
F153.07245966945854
sss(F727981.5276203982
F4631518.124125179
tp1628
g1612
ssg268
(dp1629
(F728633.538580009
F4631908.460396009
tp1630
(dp1631
I0
(dp1632
g852
F71.84029905206009
sss(F728544.1972221225
F4631828.679746407
tp1633
(dp1634
I0
(dp1635
g852
F47.93824330033085
ssssg270
(dp1636
(F728070.4692057244
F4631909.46419039
tp1637
(dp1638
I0
(dp1639
g852
F4.571992312813595
sssg546
(dp1640
I0
(dp1641
g852
F40.70688476589781
ssssg272
(dp1642
(F726251.9408204223
F4631348.80979479
tp1643
(dp1644
I0
(dp1645
g852
F417.0555035546858
sssg66
g1044
s(F725765.3345228384
F4631474.669762542
tp1646
g942
ssg274
(dp1647
(F727729.9990457414
F4631232.32212005
tp1648
(dp1649
I0
(dp1650
g852
F33.77528885494161
sss(F727745.6430894894
F4631294.622136245
tp1651
(dp1652
I0
(dp1653
g852
F30.751996143929155
sss(F727565.5289352797
F4631382.243923443
tp1654
(dp1655
I0
(dp1656
g852
F216.17585335987005
ssssg276
(dp1657
(F728101.0273844393
F4632908.68772428
tp1658
(dp1659
I0
(dp1660
g852
F183.65978390097501
sss(F728014.6482978611
F4633143.571924035
tp1661
g977
sg808
(dp1662
I0
(dp1663
g852
F199.19701619825736
ssssg278
(dp1664
g762
(dp1665
I0
(dp1666
g852
F193.28180293749233
ssI1
(dp1667
g852
F193.28180293749233
sss(F728240.6765748361
F4632726.974268271
tp1668
g1085
s(F728444.1319174186
F4632530.410080707
tp1669
(dp1670
I0
(dp1671
g852
F85.02183316416733
ssssg280
(dp1672
(F725026.6095814506
F4632188.034203262
tp1673
(dp1674
I0
(dp1675
g852
F3.985794360960919
sss(F725164.7990262255
F4632222.849553473
tp1676
g1036
ssg282
(dp1677
g706
(dp1678
I0
(dp1679
g852
F2472.350813641917
sss(F729391.2088385731
F4631384.789785755
tp1680
g867
sg494
(dp1681
I0
(dp1682
g852
F121.91232812478259
ssssg284
(dp1683
g690
(dp1684
I0
(dp1685
g852
F1310.5012871240933
ssssg286
(dp1686
(F728545.0466901592
F4632697.705391532
tp1687
(dp1688
I0
(dp1689
g852
F663.4679548781858
ssI1
(dp1690
g852
F663.4679548781858
sssg326
(dp1691
I0
(dp1692
g852
F80.49950056375242
sssg340
(dp1693
I0
(dp1694
g852
F951.0323323545356
sssg138
g1269
ssg288
(dp1695
(F724321.6679559291
F4632075.024204837
tp1696
g1215
s(F724941.6666924856
F4630933.590732058
tp1697
(dp1698
I0
(dp1699
g852
F1104.6086476151152
sss(F723473.1595553795
F4632931.465369329
tp1700
(dp1701
I0
(dp1702
g852
F1526.2644673261618
sssg98
g1149
ssg290
(dp1703
(F727661.461909629
F4632267.187655033
tp1704
(dp1705
I0
(dp1706
g852
F146.72230916983386
sssg458
(dp1707
I0
(dp1708
g852
F229.75836350569267
ssssg292
(dp1709
(F728873.1673577781
F4631881.574673017
tp1710
(dp1711
I0
(dp1712
g852
F48.48518153948764
sss(F728965.6743760285
F4631743.377329268
tp1713
(dp1714
I0
(dp1715
g852
F117.84672679992667
ssssg294
(dp1716
g344
(dp1717
I0
(dp1718
g852
F48.5905816850036
ssssg296
(dp1719
g48
g994
sg796
(dp1720
I0
(dp1721
g852
F419.77932719216784
sssg822
(dp1722
I0
(dp1723
g852
F116.21657241319662
ssssg298
(dp1724
(F728704.1888070406
F4632140.5905886125
tp1725
(dp1726
I0
(dp1727
g852
F157.8114938337465
sss(F728825.3748999396
F4631955.043469165
tp1728
(dp1729
I0
(dp1730
g852
F63.80504548467293
sssg496
(dp1731
I0
(dp1732
g852
F285.40205678300316
ssssg300
(dp1733
g664
(dp1734
I0
(dp1735
g852
F192.50672442982432
ssssg302
(dp1736
g568
(dp1737
I0
(dp1738
g852
F186.7064184496067
sssg92
g1129
s(F728770.6890004126
F4631002.730883477
tp1739
(dp1740
I0
(dp1741
g852
F229.6379155646299
ssssg304
(dp1742
(F728501.9754338262
F4632103.099080149
tp1743
(dp1744
I0
(dp1745
g852
F284.36963787048575
sss(F728321.7955507009
F4632000.738142483
tp1746
(dp1747
I0
(dp1748
g852
F81.27809484705676
ssI1
(dp1749
g852
F81.27809484705676
sssg100
g1155
ssg306
(dp1750
(F727884.8839327868
F4632913.561497866
tp1751
(dp1752
I0
(dp1753
g852
F186.54479841708462
sss(F727847.7011662095
F4633100.336774416
tp1754
g1451
ssg308
(dp1755
g168
g1351
ssg310
(dp1756
(F727704.5252371902
F4632283.2342211725
tp1757
(dp1758
I0
(dp1759
g852
F30.125103386741714
sss(F727732.1405902479
F4632296.3732568985
tp1760
g1359
s(F727802.978240897
F4632351.179509729
tp1761
(dp1762
I0
(dp1763
g852
F89.7395040077266
ssssg312
(dp1764
g748
(dp1765
I0
(dp1766
g852
F222.7761290837499
sss(F728454.9539764317
F4631221.036567812
tp1767
(dp1768
I0
(dp1769
g852
F141.19408469655266
sssg554
(dp1770
I0
(dp1771
g852
F372.9883180235708
ssssg314
(dp1772
(F728224.6153150826
F4631732.758495705
tp1773
g951
s(F728284.9363738117
F4631663.342794701
tp1774
g1122
ssg316
(dp1775
(F724550.8523048126
F4632302.676132171
tp1776
(dp1777
I0
(dp1778
g852
F3.510045896719538
sssg384
(dp1779
I0
(dp1780
g852
F238.71131818586042
sssg834
(dp1781
I0
(dp1782
g852
F67.99962178187624
ssssg318
(dp1783
(F728395.1640872674
F4630487.735427786
tp1784
g1275
s(F728420.1457844215
F4630601.2440257175
tp1785
(dp1786
I0
(dp1787
g852
F120.8725974915725
sssg392
(dp1788
I0
(dp1789
g852
F2212.787415000179
ssssg320
(dp1790
g824
(dp1791
I0
(dp1792
g852
F120.5126393195918
ssssg322
(dp1793
(F727325.207608375
F4630662.98927952
tp1794
(dp1795
I0
(dp1796
g852
F427.53377112624264
sssg442
(dp1797
I0
(dp1798
g852
F132.14361541262267
sssg518
(dp1799
I0
(dp1800
g852
F323.05892741822595
ssssg324
(dp1801
(F724658.7622777099
F4631959.699596804
tp1802
(dp1803
I0
(dp1804
g852
F316.7703958412953
sss(F724724.3757691045
F4631719.684537816
tp1805
g1598
ssg326
(dp1806
g498
(dp1807
I0
(dp1808
g852
F269.5679930537786
sssg192
g1431
s(F728962.0627664127
F4633112.457004273
tp1809
g1691
ssg328
(dp1810
g50
g1000
s(F725595.1891667515
F4632860.111522688
tp1811
(dp1812
I0
(dp1813
g852
F235.4945535446871
sss(F725196.0250819998
F4632239.951938543
tp1814
g1307
ssg330
(dp1815
(F728293.0408764548
F4632070.289103353
tp1816
g1744
s(F728508.6495154193
F4632086.862135807
tp1817
(dp1818
I0
(dp1819
g852
F17.576576033386516
sssg558
(dp1820
I0
(dp1821
g852
F195.41883177145183
ssI1
(dp1822
g852
F195.41883177145183
ssssg332
(dp1823
g594
(dp1824
I0
(dp1825
g852
F750.0106041685821
sssg652
(dp1826
I0
(dp1827
g852
F180.9779907517756
sssg616
(dp1828
I0
(dp1829
g852
F186.06615514651793
ssssg334
(dp1830
(F725901.1494469866
F4631511.312989577
tp1831
g1644
s(F726430.9409596003
F4631020.478873167
tp1832
(dp1833
I0
(dp1834
g852
F374.56826480099545
sss(F726615.5046853792
F4631541.522963035
tp1835
(dp1836
I0
(dp1837
g852
F414.8895780361163
ssssg336
(dp1838
(F727312.8464071109
F4632132.45915058
tp1839
(dp1840
I0
(dp1841
g852
F6.636910212736294
sss(F727317.9337515975
F4632126.184802818
tp1842
g1174
ssg338
(dp1843
(F724061.8961527605
F4631531.791965361
tp1844
g1698
s(F725203.4880003525
F4631068.113816458
tp1845
(dp1846
I0
(dp1847
g852
F318.0721305419551
sss(F726064.609339201
F4630086.872348658
tp1848
(dp1849
I0
(dp1850
g852
F1425.7895335123533
ssssg340
(dp1851
g420
(dp1852
I0
(dp1853
g852
F564.9434267410205
sssg218
g1501
s(F728962.0627664127
F4633112.457004273
tp1854
g1693
ssg342
(dp1855
g196
g1437
s(F725138.39745622
F4634012.530779428
tp1856
(dp1857
I0
(dp1858
g852
F148.57055685020825
ssssg344
(dp1859
g734
(dp1860
I0
(dp1861
g852
F110.96887708712794
sssg294
g1717
sg640
(dp1862
I0
(dp1863
g852
F72.3045446892282
ssssg346
(dp1864
g126
g1234
s(F725700.7304960729
F4633035.400425814
tp1865
g909
s(F725465.8074068476
F4632670.73294262
tp1866
g1812
ssg348
(dp1867
(F728771.3020417456
F4631541.400841073
tp1868
(dp1869
I0
(dp1870
g852
F68.01137556110709
sssg114
g1194
sg40
g965
ssg350
(dp1871
(F726379.8479708114
F4633754.2881173305
tp1872
(dp1873
I0
(dp1874
g852
F53.27838393665662
sss(F726609.7666895215
F4633980.782654444
tp1875
g1377
s(F726264.6108973448
F4633767.525428516
tp1876
(dp1877
I0
(dp1878
g852
F102.23057143755713
ssssg352
(dp1879
(F728225.8264014801
F4630677.0587361725
tp1880
(dp1881
I0
(dp1882
g852
F109.52114978494717
sssg740
(dp1883
I0
(dp1884
g852
F15.575138425447454
sss(F728416.0452431991
F4630716.378527694
tp1885
(dp1886
I0
(dp1887
g852
F85.80779278196538
ssssg354
(dp1888
(F726679.2320452142
F4632561.583108358
tp1889
(dp1890
I0
(dp1891
g852
F42.9972613338893
ssssg356
(dp1892
(F724592.4215080184
F4632483.424554699
tp1893
g1421
s(F724482.5949015499
F4632317.61162436
tp1894
(dp1895
I0
(dp1896
g852
F0.977858616527807
ssssg358
(dp1897
g722
(dp1898
I0
(dp1899
g852
F901.4814816352493
sss(F726475.6063899203
F4632539.998494855
tp1900
(dp1901
I0
(dp1902
g852
F1.979483813766951
ssssg360
(dp1903
g784
(dp1904
I0
(dp1905
g852
F102.3042044584722
sssg232
g1542
ssg362
(dp1906
(F727417.1031963971
F4632432.68001016
tp1907
(dp1908
I0
(dp1909
g852
F96.93890894674068
ssssg364
(dp1910
(F728483.130829698
F4631530.722516304
tp1911
(dp1912
I0
(dp1913
g852
F94.59735355725074
sss(F728424.570723455
F4631458.265295695
tp1914
(dp1915
I0
(dp1916
g852
F46.45309021502021
sss(F728375.4258034241
F4631507.378096166
tp1917
(dp1918
I0
(dp1919
g852
F28.78179990905529
ssssg366
(dp1920
(F727935.2773578016
F4632065.074309645
tp1921
(dp1922
I0
(dp1923
g852
F107.4336119808548
sss(F728040.7285173867
F4631943.606029236
tp1924
(dp1925
I0
(dp1926
g852
F53.42188817193409
ssssg368
(dp1927
g36
g956
ssg370
(dp1928
g110
g1187
ssg372
(dp1929
(F726826.2756694907
F4631705.499430151
tp1930
g879
s(F726942.5518265516
F4631822.7938673105
tp1931
g1490
sg130
g1248
ssg374
(dp1932
g410
(dp1933
I0
(dp1934
g852
F185.9821522924277
sssg108
g1184
s(F727584.242760262
F4630991.029069324
tp1935
g1356
ssg376
(dp1936
(F727646.6108911191
F4631831.126577156
tp1937
g1062
s(F727744.8260648369
F4631599.042711487
tp1938
(dp1939
I0
(dp1940
g852
F17.944168540497206
ssssg378
(dp1941
(F727767.0900048219
F4632120.836734954
tp1942
(dp1943
I0
(dp1944
g852
F134.75958721414463
sss(F727716.8329913714
F4631974.877080146
tp1945
g1506
ssg380
(dp1946
(F728241.6771468419
F4630563.745069347
tp1947
g1514
s(F728286.7189687737
F4630520.835522417
tp1948
(dp1949
I0
(dp1950
g852
F19.10735364729851
sss(F728395.1640872674
F4630487.735427786
tp1951
g1278
ssg382
(dp1952
(F728420.1457844215
F4630601.2440257175
tp1953
(dp1954
I0
(dp1955
g852
F115.24737862864717
sss(F728334.3095166851
F4630692.088354165
tp1956
g1886
s(F728545.8465884556
F4630824.128591656
tp1957
(dp1958
I0
(dp1959
g852
F168.72234267001113
ssssg384
(dp1960
g316
g1779
ssg386
(dp1961
(F725026.6095814506
F4632188.034203262
tp1962
(dp1963
I0
(dp1964
g852
F275.73395015862627
sssg198
g1441
sg418
(dp1965
I0
(dp1966
g852
F83.3453891567753
ssssg388
(dp1967
g366
g1922
sg526
(dp1968
I0
(dp1969
g852
F113.72468836201985
sssg186
g1417
ssg390
(dp1970
(F728519.1505597022
F4632763.67901488
tp1971
g1138
ssg392
(dp1972
g318
g1788
ssg394
(dp1973
(F728330.4655250319
F4632480.753269472
tp1974
g1237
sg788
(dp1975
I0
(dp1976
g852
F74.30123630249818
ssssg396
(dp1977
g598
(dp1978
I0
(dp1979
g852
F382.8805886752892
ssssg398
(dp1980
g184
g1410
ssg400
(dp1981
g292
g1714
s(F728981.8130578371
F4631717.329459975
tp1982
g1200
s(F729068.5282015018
F4631863.279299082
tp1983
g1119
ssg402
(dp1984
g538
(dp1985
I0
(dp1986
g852
F620.3434361367575
ssssg404
(dp1987
g560
(dp1988
I0
(dp1989
g852
F169.50747111440128
ssssg406
(dp1990
(F728414.5658626399
F4631711.0409979075
tp1991
(dp1992
I0
(dp1993
g852
F46.73444494151742
sssg716
(dp1994
I0
(dp1995
g852
F122.41106109769056
sss(F728338.5800537178
F4631793.307605878
tp1996
g1538
ssg408
(dp1997
g530
(dp1998
I0
(dp1999
g852
F51.39822404893991
ssssg410
(dp2000
g30
g936
s(F727733.3421069515
F4631205.75222469
tp2001
(dp2002
I0
(dp2003
g852
F27.424048013162395
sssg374
g1933
ssg412
(dp2004
(F727696.4856245794
F4631555.373154681
tp2005
g1027
sg376
g1939
s(F727845.1239324356
F4631492.314807826
tp2006
g1626
ssg414
(dp2007
g234
g1545
s(F728959.3962362842
F4632213.690537725
tp2008
g1392
s(F728958.6109288177
F4632201.883009868
tp2009
(dp2010
I0
(dp2011
g852
F16.9106774865872
ssssg416
(dp2012
(F727446.074310411
F4632118.565068769
tp2013
(dp2014
I0
(dp2015
g852
F287.40876578408637
ssssg418
(dp2016
g386
g1965
ssg420
(dp2017
(F728307.6604702758
F4633364.582260795
tp2018
g1852
ssg422
(dp2019
g604
(dp2020
I0
(dp2021
g852
F294.06315264681893
ssI1
(dp2022
g852
F277.41141641771486
sss(F729675.0710133899
F4633518.312213309
tp2023
(dp2024
I0
(dp2025
g852
F475.9660004174462
ssssg424
(dp2026
g52
g1005
s(F727534.0742046055
F4632465.283567255
tp2027
g1163
s(F727518.1855974125
F4632235.71803905
tp2028
g1705
s(F727704.5252371902
F4632283.2342211725
tp2029
(dp2030
I0
(dp2031
g852
F45.97104322489327
ssssg426
(dp2032
(F727534.0742046055
F4632465.283567255
tp2033
g1166
sg206
g1463
sg148
g1300
ssg428
(dp2034
g836
(dp2035
I0
(dp2036
g852
F585.0005075961708
sssg730
(dp2037
I0
(dp2038
g852
F112.75597756526543
sss(F727995.8607604454
F4633148.640090804
tp2039
(dp2040
I0
(dp2041
g852
F139.64713487243986
ssssg430
(dp2042
(F727979.2314122722
F4632802.644758684
tp2043
(dp2044
I0
(dp2045
g852
F68.17111847956153
sssg118
g1208
ssg432
(dp2046
(F728025.9088060168
F4631216.963775945
tp2047
g1427
ssg434
(dp2048
(F728457.883212416
F4632511.287469881
tp2049
(dp2050
I0
(dp2051
g852
F111.60171580322933
sssg624
(dp2052
I0
(dp2053
g852
F148.83072804853762
sss(F728570.550418529
F4632446.75961431
tp2054
(dp2055
I0
(dp2056
g852
F56.647296717224556
ssssg436
(dp2057
g216
g1494
sg650
(dp2058
I0
(dp2059
g852
F383.92276968265077
ssssg438
(dp2060
(F728239.1895828937
F4631416.542017237
tp2061
(dp2062
I0
(dp2063
g852
F180.81702401936545
ssssg440
(dp2064
(F727979.2314122722
F4632802.644758684
tp2065
(dp2066
I0
(dp2067
g852
F147.29371377166638
sssg306
g1752
s(F727898.4326808064
F4632929.333516858
tp2068
(dp2069
I0
(dp2070
g852
F20.79243025633362
ssssg442
(dp2071
(F727078.7592654369
F4630895.453916756
tp2072
g1797
ssg444
(dp2073
g472
(dp2074
I0
(dp2075
g852
F163.74217849885392
sss(F728398.3156278314
F4631491.2154450845
tp2076
g1918
s(F728318.3565299821
F4631624.819116834
tp2077
g1290
ssg446
(dp2078
g720
(dp2079
I0
(dp2080
g852
F306.62155553628503
ssssg448
(dp2081
(F727919.1128365126
F4632237.845133024
tp2082
(dp2083
I0
(dp2084
g852
F95.88660565095421
ssssg450
(dp2085
(F726360.1517642636
F4633803.792113558
tp2086
g1877
sg562
(dp2087
I0
(dp2088
g852
F399.85855861679136
sss(F726213.9693830318
F4633749.468231625
tp2089
g905
ssg452
(dp2090
g468
(dp2091
I0
(dp2092
g852
F43.5666225616994
ssssg454
(dp2093
g752
(dp2094
I0
(dp2095
g852
F155.8819585596576
ssssg456
(dp2096
(F728423.6760749947
F4630480.533640647
tp2097
g1786
sg236
g1552
sg382
g1954
ssg458
(dp2098
g290
g1707
s(F727189.6187861799
F4632034.731895083
tp2099
(dp2100
I0
(dp2101
g852
F157.5836482218847
ssssg460
(dp2102
(F727884.8839327868
F4632913.561497866
tp2103
g2066
sg430
g2044
s(F728101.5996920384
F4632907.7064794125
tp2104
(dp2105
I0
(dp2106
g852
F161.88784097891147
ssssg462
(dp2107
g194
g1434
s(F726609.7666895215
F4633980.782654444
tp2108
g1374
ssg464
(dp2109
(F727995.8607604454
F4633148.640090804
tp2110
(dp2111
I0
(dp2112
g852
F107.30937391207333
sssg200
g1448
s(F727922.941355062
F4633013.259133458
tp2113
(dp2114
I0
(dp2115
g852
F109.27149091599276
ssssg466
(dp2116
(F728519.1505597022
F4632763.67901488
tp2117
g1136
ssg468
(dp2118
g452
g2091
s(F727740.3719835463
F4631264.331597562
tp2119
g1649
s(F727733.3421069515
F4631205.75222469
tp2120
(dp2121
I0
(dp2122
g852
F27.84930937930062
ssssg470
(dp2123
g794
(dp2124
I0
(dp2125
g852
F9.508605634992621
sssg614
(dp2126
I0
(dp2127
g852
F220.45415770596034
sssg576
(dp2128
I0
(dp2129
g852
F138.63122818577844
ssssg472
(dp2130
g264
g1617
sg444
g2074
sg438
g2062
ssg474
(dp2131
g176
g1383
ssg476
(dp2132
g124
g1226
ssg478
(dp2133
(F728011.8029704535
F4632132.210679294
tp2134
(dp2135
I0
(dp2136
g852
F12.49347233942123
sss(F728061.8809991396
F4632175.56186292
tp2137
(dp2138
I0
(dp2139
g852
F53.76749291808447
ssssg480
(dp2140
(F728682.2089037469
F4630633.533536969
tp2141
(dp2142
I0
(dp2143
g852
F78.99815006742273
sss(F728618.7167365394
F4630881.038737223
tp2144
(dp2145
I0
(dp2146
g852
F202.67208067005194
ssssg482
(dp2147
(F729385.4503112381
F4631206.868969908
tp2148
(dp2149
I0
(dp2150
g852
F239.41627744066915
sss(F729185.2926239066
F4631350.607051305
tp2151
(dp2152
I0
(dp2153
g852
F34.54981539298393
sssg698
(dp2154
I0
(dp2155
g852
F21.284978738263593
sss(F729209.4409303941
F4631375.614266914
tp2156
g1079
ssg484
(dp2157
g766
(dp2158
I0
(dp2159
g852
F155.0219035598331
sss(F726343.2995946307
F4633318.41485946
tp2160
g1261
sg20
g902
ssg486
(dp2161
g246
g1572
s(F728171.306125866
F4631794.180820483
tp2162
g1056
ssg488
(dp2163
(F728021.4737335377
F4632140.120369077
tp2164
g2138
sg228
g1532
ssg490
(dp2165
(F730136.9798474425
F4633015.108355239
tp2166
(dp2167
I0
(dp2168
g852
F719.7667421209773
sssg544
(dp2169
I0
(dp2170
g852
F259.955630202804
sssg626
(dp2171
I0
(dp2172
g852
F1071.5961908721254
ssssg492
(dp2173
g106
g1177
ssg494
(dp2174
g12
g870
sg760
(dp2175
I0
(dp2176
g852
F62.43793103059264
sss(F729512.0593959909
F4631340.768176898
tp2177
g1681
ssg496
(dp2178
(F728959.3962362842
F4632213.690537725
tp2179
g1395
s(F728971.5680986852
F4632212.747349851
tp2180
g2010
sg298
g1731
ssg498
(dp2181
g574
(dp2182
I0
(dp2183
g852
F530.1089670010635
sss(F729017.7362828713
F4633170.599774526
tp2184
g1807
sg772
(dp2185
I0
(dp2186
g852
F108.04025944467759
ssssg500
(dp2187
g628
(dp2188
I0
(dp2189
g852
F256.04926996598215
sssg680
(dp2190
I0
(dp2191
g852
F381.8738058312444
sssg480
g2142
ssg502
(dp2192
(F728421.5210681092
F4631875.659405485
tp2193
(dp2194
I0
(dp2195
g852
F171.31622991577845
sss(F728633.538580009
F4631908.460396009
tp2196
(dp2197
I0
(dp2198
g852
F110.79581477298028
sss(F728508.6495154193
F4632086.862135807
tp2199
(dp2200
I0
(dp2201
g852
F112.16089096709344
ssssg504
(dp2202
(F729109.5490611134
F4631523.353480334
tp2203
(dp2204
I0
(dp2205
g852
F75.39020671360613
sss(F728991.7593916691
F4631573.259732309
tp2206
(dp2207
I0
(dp2208
g852
F80.20442481771173
sss(F728981.8130578371
F4631717.329459975
tp2209
g1197
ssg506
(dp2210
(F728873.1673577781
F4631881.574673017
tp2211
(dp2212
I0
(dp2213
g852
F118.72716426140236
sss(F728797.099659346
F4631787.321910296
tp2214
(dp2215
I0
(dp2216
g852
F65.50593048390303
sssg524
(dp2217
I0
(dp2218
g852
F145.76339440169323
ssssg508
(dp2219
g172
g1362
ssg510
(dp2220
g782
(dp2221
I0
(dp2222
g852
F23.553838643052174
sss(F728384.4201326583
F4632590.299336023
tp2223
g1670
ssg512
(dp2224
(F727421.0344274084
F4631461.446023394
tp2225
g1556
s(F727548.1902871036
F4631315.666566696
tp2226
(dp2227
I0
(dp2228
g852
F198.6879734965975
sss(F727248.7865143036
F4631529.540895255
tp2229
g1107
ssg514
(dp2230
g88
g1117
ssg516
(dp2231
(F728418.4471356437
F4631714.499849313
tp2232
g1144
sg592
(dp2233
I0
(dp2234
g852
F445.9802438557336
sssg364
g1912
ssg518
(dp2235
g744
(dp2236
I0
(dp2237
g852
F413.9890018796726
sssg322
g1799
sg550
(dp2238
I0
(dp2239
g852
F282.047506328919
ssssg520
(dp2240
(F727997.2381720252
F4630648.856320788
tp2241
g1519
s(F728225.8264014801
F4630677.0587361725
tp2242
(dp2243
I0
(dp2244
g852
F164.0597691205256
sssg534
(dp2245
I0
(dp2246
g852
F52.466420553437416
ssssg522
(dp2247
(F727888.2274373128
F4633579.14146503
tp2248
(dp2249
I0
(dp2250
g852
F279.763752367186
ssssg524
(dp2251
g268
g1631
s(F728553.4999198893
F4631984.814922466
tp2252
g2197
sg506
g2217
ssg526
(dp2253
g596
(dp2254
I0
(dp2255
g852
F35.00889115010793
sssg388
g1968
ssg528
(dp2256
(F725284.9268239368
F4634019.048840103
tp2257
g1857
s(F724963.391528518
F4634473.725525812
tp2258
(dp2259
I0
(dp2260
g852
F517.6730750919688
sss(F725016.95398938
F4633961.902813891
tp2261
(dp2262
I0
(dp2263
g852
F134.9772303865589
ssssg530
(dp2264
g582
(dp2265
I0
(dp2266
g852
F130.11611629538095
sssg408
g1998
sg252
g1586
ssg532
(dp2267
(F727741.0498387511
F4631180.544297418
tp2268
g2002
sg156
g1319
s(F727729.9990457414
F4631232.32212005
tp2269
g2121
ssg534
(dp2270
(F728063.0301295612
F4630656.738218881
tp2271
g2245
ssg536
(dp2272
(F727584.242760262
F4630991.029069324
tp2273
g1353
ssg538
(dp2274
g402
g1985
s(F726446.4651989109
F4632588.313339565
tp2275
g1483
s(F726476.7471558268
F4632538.380777539
tp2276
g1901
ssg540
(dp2277
(F728797.099659346
F4631787.321910296
tp2278
(dp2279
I0
(dp2280
g852
F86.25666905928159
ssssg542
(dp2281
g164
g1339
sg622
(dp2282
I0
(dp2283
g852
F109.6662119272924
sssg826
(dp2284
I0
(dp2285
g852
F26.42376407280753
ssssg544
(dp2286
(F729178.9132283742
F4631991.98381625
tp2287
g1548
s(F729567.6577481428
F4632631.839216878
tp2288
g2169
ssg546
(dp2289
(F728005.7003876327
F4631983.94122803
tp2290
g1925
s(F728067.4618237446
F4631912.90784649
tp2291
g1640
ssg548
(dp2292
(F724622.006754156
F4632139.27079971
tp2293
(dp2294
I0
(dp2295
g852
F192.26554441284077
sss(F724547.4795654535
F4632303.648269719
tp2296
g1777
ssg550
(dp2297
(F727373.152007082
F4631027.427565214
tp2298
g2238
ssg552
(dp2299
(F725491.5438263947
F4633439.92869529
tp2300
(dp2301
I0
(dp2302
g852
F100.1113098612589
sssg814
(dp2303
I0
(dp2304
g852
F561.195295431203
sss(F725216.4680115121
F4633309.526479635
tp2305
g1386
ssg554
(dp2306
(F728944.9686424374
F4631152.263791159
tp2307
g1740
s(F728664.8643691958
F4630917.863927344
tp2308
(dp2309
I0
(dp2310
g852
F135.6514122480724
sss(F728544.9608314405
F4631298.502488052
tp2311
g1770
ssg556
(dp2312
(F728203.1606626901
F4632359.313082784
tp2313
(dp2314
I0
(dp2315
g852
F29.977058124273615
sssg704
(dp2316
I0
(dp2317
g852
F21.389711332953333
ssssg558
(dp2318
(F728704.1888070406
F4632140.5905886125
tp2319
(dp2320
I0
(dp2321
g852
F45.02078124309679
sssg330
g1820
s(F728615.4323211496
F4632279.959894167
tp2322
(dp2323
I0
(dp2324
g852
F120.21775326752115
ssssg560
(dp2325
g404
g1988
ssg562
(dp2326
(F726318.2611754737
F4633358.07927658
tp2327
(dp2328
I0
(dp2329
g852
F37.07962072210978
sssg450
g2087
s(F726492.2061906102
F4633467.861842199
tp2330
(dp2331
I0
(dp2332
g852
F544.3138619505108
ssssg564
(dp2333
(F727317.0263632541
F4632127.303906278
tp2334
g1840
s(F727417.1031963971
F4632432.68001016
tp2335
(dp2336
I0
(dp2337
g852
F384.38349884816023
ssssg566
(dp2338
g714
(dp2339
I0
(dp2340
g852
F310.261559853409
sss(F727685.0132996463
F4631526.552047027
tp2341
g1331
ssg568
(dp2342
g302
g1737
s(F729185.2926239066
F4631350.607051305
tp2343
(dp2344
I0
(dp2345
g852
F124.93368161002431
ssssg570
(dp2346
(F727094.3836619088
F4631604.098665779
tp2347
g1246
ssg572
(dp2348
g10
g861
s(F728065.3691980868
F4631538.699011285
tp2349
g1622
s(F727981.5276203982
F4631518.124125179
tp2350
g1610
ssg574
(dp2351
(F730136.9798474425
F4633015.108355239
tp2352
(dp2353
I0
(dp2354
g852
F715.3970814495593
sss(F729233.8966447223
F4633463.878577556
tp2355
(dp2356
I0
(dp2357
g852
F455.7273608463329
sss(F729776.5617357248
F4633754.1184659675
tp2358
g2024
s(F729201.2805355573
F4633363.680350743
tp2359
g2182
ssg576
(dp2360
g120
g1219
sg258
g1604
sg470
g2128
ssg578
(dp2361
g606
(dp2362
I0
(dp2363
g852
F161.01451714498165
ssI1
(dp2364
g852
F161.01451714498165
sssg502
g2194
sg230
g1535
ssg580
(dp2365
(F728171.306125866
F4631794.180820483
tp2366
g1058
s(F728081.5337174463
F4631896.7946159765
tp2367
g1159
ssg582
(dp2368
g338
g1846
s(F725154.5352186314
F4631188.277934591
tp2369
g2265
s(F725765.3345228384
F4631474.669762542
tp2370
g947
ssg584
(dp2371
(F723473.1595553795
F4632931.465369329
tp2372
(dp2373
I0
(dp2374
g852
F845.0442657715533
ssssg586
(dp2375
(F726527.3596068854
F4634080.756968588
tp2376
(dp2377
I0
(dp2378
g852
F246.03850027989094
sssg174
g1371
ssg588
(dp2379
(F728604.7917315748
F4632296.270615568
tp2380
(dp2381
I0
(dp2382
g852
F19.474644518574394
sss(F728680.2630826856
F4632178.727404295
tp2383
g2323
ssg590
(dp2384
g8
g854
sg154
g1310
s(F726287.580718046
F4632786.78882651
tp2385
(dp2386
I0
(dp2387
g852
F147.0140505066487
ssssg592
(dp2388
g516
g2233
sg820
(dp2389
I0
(dp2390
g852
F87.41969957141669
sss(F728801.7843468464
F4631599.733513711
tp2391
g1869
ssg594
(dp2392
g242
g1563
s(F726602.2264399002
F4630974.897184673
tp2393
g1824
sg668
(dp2394
I0
(dp2395
g852
F395.4556538459081
ssssg596
(dp2396
(F727767.0900048219
F4632120.836734954
tp2397
(dp2398
I0
(dp2399
g852
F49.78216954443115
sss(F727849.4129105412
F4632132.246565969
tp2400
g2254
ssg598
(dp2401
g396
g1978
ssg600
(dp2402
g816
(dp2403
I0
(dp2404
g852
F489.3933842701011
ssI1
(dp2405
g852
F60.46920080835742
sssg726
(dp2406
I0
(dp2407
g852
F28.80012199361097
ssssg602
(dp2408
(F729017.1058609276
F4632973.471231069
tp2409
g1286
s(F728654.9685924951
F4632506.04231694
tp2410
g1228
ssg604
(dp2411
(F729531.8438617149
F4633935.644825345
tp2412
(dp2413
I0
(dp2414
g852
F36.930223586555506
sssg422
g2020
ssg606
(dp2415
(F728421.5210681092
F4631875.659405485
tp2416
g2362
sg304
g1747
sg724
(dp2417
I0
(dp2418
g852
F230.54586826601115
ssssg608
(dp2419
g700
(dp2420
I0
(dp2421
g852
F268.4599865516286
ssssg610
(dp2422
(F728034.1653009783
F4633079.282497208
tp2423
g1659
sg648
(dp2424
I0
(dp2425
g852
F1.13594783257934
ssI1
(dp2426
g852
F1.13594783257934
ssssg612
(dp2427
g696
(dp2428
I0
(dp2429
g852
F181.6839237531858
ssI1
(dp2430
g852
F144.16435909380274
ssssg614
(dp2431
g548
g2294
s(F724698.2345369158
F4632116.11664999
tp2432
g1444
s(F724650.5087041763
F4631952.437302046
tp2433
g2126
ssg616
(dp2434
(F726602.2264399002
F4630974.897184673
tp2435
g1828
ssg618
(dp2436
(F727898.4326808064
F4632929.333516858
tp2437
(dp2438
I0
(dp2439
g852
F21.039366677155822
sssg792
(dp2440
I0
(dp2441
g852
F69.06461970348806
ssI1
(dp2442
g852
F266.4957956592501
ssssg620
(dp2443
g178
g1389
s(F728790.5880432061
F4632008.531362715
tp2444
g1726
s(F728680.2630826856
F4632178.727404295
tp2445
g2320
ssg622
(dp2446
(F726636.1027871186
F4632741.278449635
tp2447
g2282
ssg624
(dp2448
g588
g2381
s(F728521.0369477848
F4632419.27447721
tp2449
g2052
ssg626
(dp2450
(F728654.9685924951
F4632506.04231694
tp2451
g1231
s(F728521.0369477848
F4632419.27447721
tp2452
g2055
sg490
g2171
ssg628
(dp2453
g500
g2188
ssg630
(dp2454
g678
(dp2455
I0
(dp2456
g852
F165.99759623970033
ssssg632
(dp2457
(F726569.0803057437
F4632686.352230362
tp2458
g1579
sg354
g1890
sg162
g1335
ssg634
(dp2459
(F725396.8752380656
F4633407.369826292
tp2460
g2301
sg68
g1049
sg646
(dp2461
I0
(dp2462
g852
F572.7866602517541
ssssg636
(dp2463
g56
g1015
sg26
g925
ssg638
(dp2464
g128
g1243
s(F727756.4573303794
F4632591.895823977
tp2465
g996
s(F727802.978240897
F4632351.179509729
tp2466
(dp2467
I0
(dp2468
g852
F115.22310173456604
ssssg640
(dp2469
(F728955.7979321535
F4631955.2532279305
tp2470
g1862
ssg642
(dp2471
g226
g1525
ssg644
(dp2472
(F728664.8643691958
F4630917.863927344
tp2473
(dp2474
I0
(dp2475
g852
F59.04021964203022
sss(F728545.8465884556
F4630824.128591656
tp2476
(dp2477
I0
(dp2478
g852
F92.46019825164495
sss(F728684.9569593335
F4630711.317789298
tp2479
g2145
ssg646
(dp2480
(F726042.5418736974
F4633688.900763541
tp2481
g931
s(F725491.5438263947
F4633439.92869529
tp2482
g2461
s(F725977.0630058948
F4633514.992326622
tp2483
(dp2484
I0
(dp2485
g852
F166.3457819479438
ssssg648
(dp2486
g460
g2105
s(F728240.0166194064
F4632727.677658365
tp2487
(dp2488
I0
(dp2489
g852
F228.22913150459448
sssg610
g2424
ssg650
(dp2490
(F727111.9404279696
F4633104.880091403
tp2491
g1297
sg436
g2058
s(F727387.2552190276
F4632816.10957179
tp2492
g1497
ssg652
(dp2493
g332
g1826
sg334
g1833
sg756
(dp2494
I0
(dp2495
g852
F1057.5046147692924
ssssg654
(dp2496
(F728241.6771468419
F4630563.745069347
tp2497
g1509
ssg656
(dp2498
(F728618.7167365394
F4630881.038737223
tp2499
g2474
sg838
(dp2500
I0
(dp2501
g852
F373.3173996763807
sss(F728770.6890004126
F4631002.730883477
tp2502
g2309
ssg658
(dp2503
(F724061.8961527605
F4631531.791965361
tp2504
g1701
s(F725081.9102351557
F4633866.252217513
tp2505
(dp2506
I0
(dp2507
g852
F1926.0242193665665
sssg584
g2373
ssg660
(dp2508
(F727565.2380166536
F4631605.206145283
tp2509
g1454
sg770
(dp2510
I0
(dp2511
g852
F41.45615087418398
ssI1
(dp2512
g852
F41.45615087418398
sssg274
g1655
ssg662
(dp2513
(F729088.1758663505
F4631272.015041489
tp2514
g2344
s(F729212.6435106986
F4631371.715589921
tp2515
g2152
sg80
g1090
ssg664
(dp2516
g300
g1734
s(F724663.5897541778
F4632590.623597024
tp2517
g892
s(F725216.4680115121
F4633309.526479635
tp2518
g1381
ssg666
(dp2519
(F727921.2775405501
F4633257.853791843
tp2520
g2040
sg44
g979
s(F727893.8094297142
F4633118.257010953
tp2521
g2111
ssg668
(dp2522
(F727094.3836619088
F4631604.098665779
tp2523
g1251
s(F727217.378053271
F4631189.082831979
tp2524
g2394
s(F727248.7865143036
F4631529.540895255
tp2525
g1104
ssg670
(dp2526
g738
(dp2527
I0
(dp2528
g852
F163.52507078252015
ssssg672
(dp2529
g142
g1281
s(F729640.5023638355
F4630722.212854114
tp2530
(dp2531
I0
(dp2532
g852
F32.532635046529585
sssg798
(dp2533
I0
(dp2534
g852
F3.418895989036023
ssssg674
(dp2535
g440
g2069
sg256
g1594
s(F727911.9707224206
F4632945.438683092
tp2536
g2438
ssg676
(dp2537
g64
g1039
sg528
g2259
sg806
(dp2538
I0
(dp2539
g852
F2166.3638121184804
ssssg678
(dp2540
g732
(dp2541
I0
(dp2542
g852
F2.322600331049634
sssg630
g2455
s(F726169.1880161108
F4632872.843706683
tp2543
g2386
ssg680
(dp2544
(F728682.2089037469
F4630633.533536969
tp2545
g2190
ssg682
(dp2546
(F726345.6542054281
F4633383.068515438
tp2547
g2331
s(F726400.389735997
F4633667.686420177
tp2548
(dp2549
I0
(dp2550
g852
F238.3437089765277
ssI1
(dp2551
g852
F238.97858761672035
ssssg684
(dp2552
g416
g2014
s(F727677.4214841509
F4632217.900641248
tp2553
g1008
sg38
g962
ssg686
(dp2554
(F728991.7593916691
F4631573.259732309
tp2555
(dp2556
I0
(dp2557
g852
F124.82811545991382
sssg504
g2207
ssg688
(dp2558
(F728101.5996920384
F4632907.7064794125
tp2559
g2488
sg78
g1082
ssg690
(dp2560
(F729564.8837038452
F4633919.146030051
tp2561
g2413
sg284
g1684
ssg692
(dp2562
g150
g1303
s(F726685.8531262018
F4631599.444357995
tp2563
g1523
s(F726251.9408204223
F4631348.80979479
tp2564
g1836
ssg694
(dp2565
g248
g1577
sg212
g1480
sg204
g1460
ssg696
(dp2566
(F727451.0649473364
F4631651.695364726
tp2567
g1406
sg612
g2428
ssg698
(dp2568
g482
g2154
ssg700
(dp2569
g608
g2420
s(F725721.7056098223
F4633105.644505014
tp2570
g1052
sg708
(dp2571
I0
(dp2572
g852
F2.584660104195326
ssssg702
(dp2573
g324
g1803
s(F724657.6473082518
F4631958.7185370345
tp2574
(dp2575
I0
(dp2576
g852
F1.485138095645006
sss(F724724.3757691045
F4631719.684537816
tp2577
g1601
ssg704
(dp2578
g42
g973
s(F728179.1365034595
F4632341.697314924
tp2579
g2316
ssg706
(dp2580
g282
g1678
ssg708
(dp2581
(F726008.4390609307
F4633676.260054162
tp2582
g2484
s(F725976.7996902687
F4633512.421114313
tp2583
g2571
ssg710
(dp2584
g758
(dp2585
I0
(dp2586
g852
F224.81303598654986
ssssg712
(dp2587
(F728873.1673577781
F4631881.574673017
tp2588
(dp2589
I0
(dp2590
g852
F87.6458360535802
sss(F728790.5880432061
F4632008.531362715
tp2591
g1729
ssg714
(dp2592
g46
g986
s(F727740.3719835463
F4631264.331597562
tp2593
g1652
sg566
g2339
ssg716
(dp2594
g406
g1994
ssg718
(dp2595
g96
g1146
s(F728381.087111431
F4631743.648752601
tp2596
g1992
sg146
g1293
ssg720
(dp2597
(F725961.3840906238
F4632945.21803242
tp2598
g850
s(F725700.7304960729
F4633035.400425814
tp2599
g915
sg446
g2079
ssg722
(dp2600
(F726942.5518265516
F4631822.7938673105
tp2601
g1487
s(F727317.9427992324
F4632126.191697331
tp2602
g2100
sg358
g1898
sg84
g1101
ssg724
(dp2603
(F728501.9754338262
F4632103.099080149
tp2604
g1818
s(F728321.7955507009
F4632000.738142483
tp2605
g2417
s(F728553.4999198893
F4631984.814922466
tp2606
g2200
ssg726
(dp2607
g682
g2549
s(F726396.8222934516
F4633696.250227833
tp2608
g2406
ssg728
(dp2609
g136
g1263
ssg730
(dp2610
(F726997.941714454
F4634229.313977048
tp2611
(dp2612
I0
(dp2613
g852
F1240.3545372046613
sss(F727921.2775405501
F4633257.853791843
tp2614
g2037
s(F727955.6112231173
F4633297.076681268
tp2615
g1469
ssg732
(dp2616
(F726287.580718046
F4632786.78882651
tp2617
g2541
s(F726446.4651989109
F4632588.313339565
tp2618
g1478
ssg734
(dp2619
(F728955.7979321535
F4631955.2532279305
tp2620
g1860
s(F728900.1131181453
F4631841.280856979
tp2621
g1711
s(F728762.6295774302
F4631843.016164692
tp2622
g2212
sg712
g2589
ssg736
(dp2623
(F728762.6295774302
F4631843.016164692
tp2624
g2215
s(F728723.2615229886
F4631722.04153178
tp2625
g967
sg540
g2279
ssg738
(dp2626
g774
(dp2627
I0
(dp2628
g852
F115.34769943390499
sssg380
g1949
sg670
g2527
ssg740
(dp2629
g352
g1883
ssg742
(dp2630
g830
(dp2631
I0
(dp2632
g852
F44.82054535505582
ssssg744
(dp2633
(F727373.152007082
F4631027.427565214
tp2634
g2236
s(F727078.7592654369
F4630895.453916756
tp2635
g1795
sg86
g1111
ssg746
(dp2636
g180
g1398
s(F729567.6577481428
F4632631.839216878
tp2637
g2167
s(F729675.0710133899
F4633518.312213309
tp2638
g2353
ssg748
(dp2639
(F728398.3156278314
F4631491.2154450845
tp2640
g1915
s(F728544.9608314405
F4631298.502488052
tp2641
g1765
s(F728454.9539764317
F4631221.036567812
tp2642
(dp2643
I0
(dp2644
g852
F246.30540302734727
ssssg750
(dp2645
g786
(dp2646
I0
(dp2647
g852
F101.48654701819399
sssg16
g886
ssg752
(dp2648
g454
g2094
sg520
g2243
s(F728334.3095166851
F4630692.088354165
tp2649
g1881
ssg754
(dp2650
(F727815.8044348673
F4632124.043413935
tp2651
g2398
s(F727677.4214841509
F4632217.900641248
tp2652
g1003
s(F727732.5353298677
F4631991.826355495
tp2653
g1943
ssg756
(dp2654
(F726307.4487018035
F4629660.857193117
tp2655
g1365
s(F724941.6666924856
F4630933.590732058
tp2656
g1849
s(F726430.9409596003
F4631020.478873167
tp2657
g2494
ssg758
(dp2658
g362
g1908
sg102
g1169
sg564
g2336
sg710
g2585
ssg760
(dp2659
(F729212.6435106986
F4631371.715589921
tp2660
g2149
s(F729600.7494761918
F4631014.159328508
tp2661
g1068
s(F729429.954683168
F4631250.64945156
tp2662
g2175
s(F729640.5023638355
F4630722.212854114
tp2663
(dp2664
I0
(dp2665
g852
F547.9389338172034
ssssg762
(dp2666
g94
g1134
sg278
g1665
sg286
g1688
ssg764
(dp2667
(F728160.1627588937
F4632311.905502785
tp2668
g970
s(F728114.3337081606
F4632220.137771262
tp2669
g1530
ssg766
(dp2670
(F726343.2995946307
F4633318.41485946
tp2671
g1258
s(F726345.6542054281
F4633383.068515438
tp2672
g2328
sg484
g2158
ssg768
(dp2673
(F726586.181130031
F4632700.344775771
tp2674
g1345
ssg770
(dp2675
(F727585.9082326686
F4631340.433692854
tp2676
g1316
s(F727565.5289352797
F4631382.243923443
tp2677
g2510
ssg772
(dp2678
(F729675.0710133899
F4633518.312213309
tp2679
g2356
s(F729201.2805355573
F4633363.680350743
tp2680
g2185
ssg774
(dp2681
(F728286.7189687737
F4630520.835522417
tp2682
g2627
ssg776
(dp2683
(F728065.3691980868
F4631538.699011285
tp2684
g1620
s(F728029.4367409265
F4631668.629349683
tp2685
g1570
sg260
g1607
ssg778
(dp2686
(F727585.9082326686
F4631340.433692854
tp2687
g1313
s(F727560.5284006596
F4631189.56876712
tp2688
g1181
s(F727404.8688828783
F4631444.14685402
tp2689
g2227
ssg780
(dp2690
(F728457.883212416
F4632511.287469881
tp2691
(dp2692
I0
(dp2693
g852
F80.90212024484524
sss(F728330.4655250319
F4632480.753269472
tp2694
g1240
ssg782
(dp2695
g510
g2221
sg434
g2050
sg780
g2692
ssg784
(dp2696
g360
g1904
ssg786
(dp2697
g810
(dp2698
I0
(dp2699
g852
F140.58734019823893
sssg750
g2646
sg448
g2083
ssg788
(dp2700
g556
g2314
s(F728271.3171141271
F4632387.093135622
tp2701
g1975
ssg790
(dp2702
g250
g1582
sg644
g2477
s(F728416.0452431991
F4630716.378527694
tp2703
g1958
ssg792
(dp2704
g464
g2114
sg618
g2440
ssg794
(dp2705
g702
g2575
s(F724650.5087041763
F4631952.437302046
tp2706
g2124
ssg796
(dp2707
(F727661.461909629
F4632267.187655033
tp2708
g2030
s(F727730.9223290035
F4632297.74862613
tp2709
g1758
s(F727736.487501654
F4632446.426251695
tp2710
g1720
ssg798
(dp2711
(F729656.7098364823
F4630694.167646158
tp2712
g2533
ssg800
(dp2713
g32
g944
ssg802
(dp2714
(F729385.4503112381
F4631206.868969908
tp2715
g2664
s(F729656.7098364823
F4630694.167646158
tp2716
g2531
sg74
g1072
ssg804
(dp2717
(F727756.4573303794
F4632591.895823977
tp2718
g992
ssg806
(dp2719
(F727882.0055880835
F4633362.749923751
tp2720
g2612
s(F724963.391528518
F4634473.725525812
tp2721
g2538
ssg808
(dp2722
g276
g1662
ssg810
(dp2723
g478
g2135
s(F727919.1128365126
F4632237.845133024
tp2724
g2698
s(F728006.1047585672
F4632127.180763112
tp2725
g1414
ssg812
(dp2726
(F726615.6810014477
F4632724.51262158
tp2727
(dp2728
I0
(dp2729
g852
F93.48526049546294
ssssg814
(dp2730
g552
g2303
sg658
g2506
s(F725016.95398938
F4633961.902813891
tp2731
(dp2732
I0
(dp2733
g852
F116.04494243408925
ssssg816
(dp2734
g350
g1873
sg600
g2403
ssg818
(dp2735
(F729120.5688592804
F4631506.558666509
tp2736
g1324
sg54
g1011
s(F729068.1863047086
F4631586.383659422
tp2737
g2204
ssg820
(dp2738
(F728687.3436717491
F4631545.2675764905
tp2739
(dp2740
I0
(dp2741
g852
F122.81535445267579
sss(F728771.3020417456
F4631541.400841073
tp2742
g2389
ssg822
(dp2743
(F727730.9223290035
F4632297.74862613
tp2744
g1762
s(F727736.487501654
F4632446.426251695
tp2745
g1722
s(F727904.188254968
F4632405.653728924
tp2746
g2467
ssg824
(dp2747
(F724761.252566339
F4632116.869504925
tp2748
g1963
sg320
g1791
sg280
g1674
ssg826
(dp2749
g542
g2284
sg166
g1348
sg812
g2728
ssg828
(dp2750
g270
g1638
s(F728081.5337174463
F4631896.7946159765
tp2751
g1152
ssg830
(dp2752
(F728579.9923637034
F4631860.566779728
tp2753
g1634
s(F728481.1384234718
F4631771.503874317
tp2754
g1591
sg742
g2631
ssg832
(dp2755
g222
g1511
ssg834
(dp2756
g356
g1895
sg24
g922
s(F724547.4795654535
F4632303.648269719
tp2757
g1781
ssg836
(dp2758
g428
g2035
ssg838
(dp2759
g656
g2500
sg312
g1768
s(F728424.570723455
F4631458.265295695
tp2760
g2643
ssg840
(dp2761
(F724640.1448509705
F4634514.438614936
tp2762
g1041
s(F725081.9102351557
F4633866.252217513
tp2763
g2732
s(F725138.39745622
F4634012.530779428
tp2764
g2262
ssg842
(dp2765
g116
g1204
sg210
g1474
sg522
g2249
sssS'adj'
p2766
g847
sb.