ccopy_reg
_reconstructor
p0
(cnetworkx.classes.multigraph
MultiGraph
p1
c__builtin__
object
p2
Ntp3
Rp4
(dp5
S'node'
p6
(dp7
(F725961.3840906238
F4632945.21803242
tp8
(dp9
s(F728022.6800876785
F4631276.570257836
tp10
(dp11
s(F729391.2088385731
F4631384.789785755
tp12
(dp13
s(F726826.2756694907
F4631705.499430151
tp14
(dp15
s(F727775.4506711953
F4632247.288120112
tp16
(dp17
s(F724663.5897541778
F4632590.623597024
tp18
(dp19
s(F726213.9693830318
F4633749.468231625
tp20
(dp21
s(F725700.7304960729
F4633035.400425814
tp22
(dp23
s(F724323.8752065112
F4632078.939208441
tp24
(dp25
s(F727775.4484366819
F4632247.284586716
tp26
(dp27
s(F726042.5418736974
F4633688.900763541
tp28
(dp29
s(F727971.2397797378
F4631165.885940926
tp30
(dp31
s(F725765.3345228384
F4631474.669762542
tp32
(dp33
s(F728224.6153150826
F4631732.758495705
tp34
(dp35
s(F727340.1646127907
F4632114.151579405
tp36
(dp37
s(F728723.2615229886
F4631722.04153178
tp38
(dp39
s(F728160.1627588937
F4632311.905502785
tp40
(dp41
s(F728014.6482978611
F4633143.571924035
tp42
(dp43
s(F727689.7435908804
F4631522.407143205
tp44
(dp45
s(F727756.4573303794
F4632591.895823977
tp46
(dp47
s(F725626.577917748
F4632493.4189114785
tp48
(dp49
s(F727677.4214841509
F4632217.900641248
tp50
(dp51
s(F729020.1725859422
F4631455.014636906
tp52
(dp53
s(F728158.0507714676
F4630288.858380589
tp54
(dp55
s(F725166.6456046148
F4632227.576128729
tp56
(dp57
s(F727696.4856245794
F4631555.373154681
tp58
(dp59
s(F725164.7990262255
F4632222.849553473
tp60
(dp61
s(F724640.1448509705
F4634514.438614936
tp62
(dp63
s(F725824.2050481692
F4631624.807255327
tp64
(dp65
s(F725721.7056098223
F4633105.644505014
tp66
(dp67
s(F727209.8961037353
F4632760.170851935
tp68
(dp69
s(F728171.306125866
F4631794.180820483
tp70
(dp71
s(F727646.6108911191
F4631831.126577156
tp72
(dp73
s(F729600.7494761918
F4631014.159328508
tp74
(dp75
s(F729209.4409303941
F4631375.614266914
tp76
(dp77
s(F728240.6765748361
F4632726.974268271
tp78
(dp79
s(F729067.0179315833
F4631103.775535202
tp80
(dp81
s(F727774.2353016367
F4632248.668129582
tp82
(dp83
s(F727248.7865143036
F4631529.540895255
tp84
(dp85
s(F727424.5886951046
F4630679.16004215
tp86
(dp87
s(F729068.5282015018
F4631863.279299082
tp88
(dp89
s(F728284.9363738117
F4631663.342794701
tp90
(dp91
s(F728969.4360062843
F4631112.756734935
tp92
(dp93
s(F728519.1505597022
F4632763.67901488
tp94
(dp95
s(F728418.4471356437
F4631714.499849313
tp96
(dp97
s(F723262.7673813066
F4630982.015356659
tp98
(dp99
s(F728081.5337174463
F4631896.7946159765
tp100
(dp101
s(F727774.2731539444
F4632248.620117873
tp102
(dp103
s(F727534.0742046055
F4632465.283567255
tp104
(dp105
s(F727317.9337515975
F4632126.184802818
tp106
(dp107
s(F725019.016482278
F4633475.02001315
tp108
(dp109
s(F727560.5284006596
F4631189.56876712
tp110
(dp111
s(F728067.4629138869
F4631912.906597308
tp112
(dp113
s(F728901.411629567
F4632038.096214111
tp114
(dp115
s(F728025.9285397108
F4631217.123794687
tp116
(dp117
s(F728981.8130578371
F4631717.329459975
tp118
(dp119
s(F727734.090662459
F4634567.814061576
tp120
(dp121
s(F728094.3459866289
F4632708.5489696525
tp122
(dp123
s(F724321.6679559291
F4632075.024204837
tp124
(dp125
s(F727998.050386104
F4630641.657347396
tp126
(dp127
s(F728654.9685924951
F4632506.04231694
tp128
(dp129
s(F725348.5754689572
F4633165.091994523
tp130
(dp131
s(F728330.4655250319
F4632480.753269472
tp132
(dp133
s(F727094.3836619088
F4631604.098665779
tp134
(dp135
s(F727319.2082004835
F4632125.336194404
tp136
(dp137
s(F728819.2241334657
F4632126.939325336
tp138
(dp139
s(F726343.2995946307
F4633318.41485946
tp140
(dp141
s(F728965.9116623506
F4633107.92132765
tp142
(dp143
s(F728395.1640872674
F4630487.735427786
tp144
(dp145
s(F729160.8634227808
F4630103.787125321
tp146
(dp147
s(F729017.1058609276
F4632973.471231069
tp148
(dp149
s(F728318.3565299821
F4631624.819116834
tp150
(dp151
s(F727111.9404279696
F4633104.880091403
tp152
(dp153
s(F726827.3157548559
F4631335.286919805
tp154
(dp155
s(F725196.0250819998
F4632239.951938543
tp156
(dp157
s(F727209.3479329302
F4632761.381602091
tp158
(dp159
s(F726264.8857600644
F4632998.9232813595
tp160
(dp161
s(F727585.9082326686
F4631340.433692854
tp162
(dp163
s(F729120.5688592804
F4631506.558666509
tp164
(dp165
s(F727685.0132996463
F4631526.552047027
tp166
(dp167
s(F726653.0159901723
F4632543.966169179
tp168
(dp169
s(F726771.733284397
F4632712.243817899
tp170
(dp171
s(F726586.181130031
F4632700.344775771
tp172
(dp173
s(F727584.242760262
F4630991.029069324
tp174
(dp175
s(F727732.1405902479
F4632296.3732568985
tp176
(dp177
s(F726307.4487018035
F4629660.857193117
tp178
(dp179
s(F726609.7666895215
F4633980.782654444
tp180
(dp181
s(F725216.4680115121
F4633309.526479635
tp182
(dp183
s(F728959.3962362842
F4632213.690537725
tp184
(dp185
s(F730816.8087736744
F4632900.688532272
tp186
(dp187
s(F727608.1585444275
F4631657.149472053
tp188
(dp189
s(F727451.0649473364
F4631651.695364726
tp190
(dp191
s(F728006.1047585672
F4632127.180763112
tp192
(dp193
s(F724592.4215080184
F4632483.424554699
tp194
(dp195
s(F728878.9007617348
F4633397.788007682
tp196
(dp197
s(F729503.8575587004
F4635197.35480215
tp198
(dp199
s(F725254.4101717658
F4634158.689746041
tp200
(dp201
s(F724698.2345369158
F4632116.11664999
tp202
(dp203
s(F727847.7011662095
F4633100.336774416
tp204
(dp205
s(F727565.2380166536
F4631605.206145283
tp206
(dp207
s(F726431.2218323466
F4632756.779383113
tp208
(dp209
s(F726837.7327791171
F4632623.473596014
tp210
(dp211
s(F729741.2093038531
F4631053.693314294
tp212
(dp213
s(F727955.6112231173
F4633297.076681268
tp214
(dp215
s(F726446.4651989109
F4632588.313339565
tp216
(dp217
s(F724967.3983904383
F4631781.915916808
tp218
(dp219
s(F726942.5518265516
F4631822.7938673105
tp220
(dp221
s(F727387.2552190276
F4632816.10957179
tp222
(dp223
s(F728013.1524080249
F4633148.748295793
tp224
(dp225
s(F727716.8329913714
F4631974.877080146
tp226
(dp227
s(F728241.6771468419
F4630563.745069347
tp228
(dp229
s(F727997.2381720252
F4630648.856320788
tp230
(dp231
s(F726685.8531262018
F4631599.444357995
tp232
(dp233
s(F728114.3337081606
F4632220.137771262
tp234
(dp235
s(F728338.5800537178
F4631793.307605878
tp236
(dp237
s(F729178.9132283742
F4631991.98381625
tp238
(dp239
s(F728255.7493229044
F4630597.096323287
tp240
(dp241
s(F727421.0344274084
F4631461.446023394
tp242
(dp243
s(F725343.450275594
F4635149.964877695
tp244
(dp245
s(F727345.859763312
F4631252.307735658
tp246
(dp247
s(F724658.3619571324
F4631960.584465782
tp248
(dp249
s(F728029.4367409265
F4631668.629349683
tp250
(dp251
s(F726569.0803057437
F4632686.352230362
tp252
(dp253
s(F728440.5183195851
F4631019.831780597
tp254
(dp255
s(F724945.167533184
F4631244.696843686
tp256
(dp257
s(F728481.1384234718
F4631771.503874317
tp258
(dp259
s(F727999.7439334573
F4632871.103799701
tp260
(dp261
s(F724724.3757691045
F4631719.684537816
tp262
(dp263
s(F727981.5276203982
F4631518.124125179
tp264
(dp265
s(F728065.3691980868
F4631538.699011285
tp266
(dp267
s(F727845.1239324356
F4631492.314807826
tp268
(dp269
s(F728579.9923637034
F4631860.566779728
tp270
(dp271
s(F728067.4618237446
F4631912.90784649
tp272
(dp273
s(F725901.1494469866
F4631511.312989577
tp274
(dp275
s(F727740.3719835463
F4631264.331597562
tp276
(dp277
s(F728034.1653009783
F4633079.282497208
tp278
(dp279
s(F728384.4201326583
F4632590.299336023
tp280
(dp281
s(F725030.5220191204
F4632188.795378779
tp282
(dp283
s(F729512.0593959909
F4631340.768176898
tp284
(dp285
s(F728817.3739077945
F4634856.158019185
tp286
(dp287
s(F728962.0627664127
F4633112.457004273
tp288
(dp289
s(F724061.8961527605
F4631531.791965361
tp290
(dp291
s(F727518.1855974125
F4632235.71803905
tp292
(dp293
s(F728900.1131181453
F4631841.280856979
tp294
(dp295
s(F728933.5376774925
F4631998.444699472
tp296
(dp297
s(F727736.487501654
F4632446.426251695
tp298
(dp299
s(F728790.5880432061
F4632008.531362715
tp300
(dp301
s(F724870.5928222926
F4633156.451290536
tp302
(dp303
s(F728944.9686424374
F4631152.263791159
tp304
(dp305
s(F728293.0408764548
F4632070.289103353
tp306
(dp307
s(F727804.9283113137
F4633081.626943023
tp308
(dp309
s(F728014.3995625204
F4630650.627222964
tp310
(dp311
s(F727730.9223290035
F4632297.74862613
tp312
(dp313
s(F728544.9608314405
F4631298.502488052
tp314
(dp315
s(F728249.9793428495
F4631703.570101636
tp316
(dp317
s(F724547.4795654535
F4632303.648269719
tp318
(dp319
s(F728423.6760749947
F4630480.533640647
tp320
(dp321
s(F725074.0942129402
F4632077.2710229345
tp322
(dp323
s(F727078.7592654369
F4630895.453916756
tp324
(dp325
s(F724738.5383854043
F4631723.73688523
tp326
(dp327
s(F729017.7362828713
F4633170.599774526
tp328
(dp329
s(F725465.8074068476
F4632670.73294262
tp330
(dp331
s(F728501.9754338262
F4632103.099080149
tp332
(dp333
s(F726602.2264399002
F4630974.897184673
tp334
(dp335
s(F726251.9408204223
F4631348.80979479
tp336
(dp337
s(F727317.0263632541
F4632127.303906278
tp338
(dp339
s(F724941.6666924856
F4630933.590732058
tp340
(dp341
s(F728307.6604702758
F4633364.582260795
tp342
(dp343
s(F725284.9268239368
F4634019.048840103
tp344
(dp345
s(F728955.7979321535
F4631955.2532279305
tp346
(dp347
s(F725595.1891667515
F4632860.111522688
tp348
(dp349
s(F728801.7843468464
F4631599.733513711
tp350
(dp351
s(F726360.1517642636
F4633803.792113558
tp352
(dp353
s(F728334.3095166851
F4630692.088354165
tp354
(dp355
s(F726713.2376079147
F4632587.895247331
tp356
(dp357
s(F724483.1348884697
F4632318.426867637
tp358
(dp359
s(F726476.7471558268
F4632538.380777539
tp360
(dp361
s(F727775.4488190793
F4632247.285191394
tp362
(dp363
s(F727334.4917590246
F4632483.39985325
tp364
(dp365
s(F728398.3156278314
F4631491.2154450845
tp366
(dp367
s(F728005.7003876327
F4631983.94122803
tp368
(dp369
s(F728025.5150729788
F4631217.224802062
tp370
(dp371
s(F727985.1276746566
F4631821.908592874
tp372
(dp373
s(F726846.615433378
F4631724.930683789
tp374
(dp375
s(F727562.3254949934
F4631130.604245016
tp376
(dp377
s(F727737.933509986
F4631615.6103266515
tp378
(dp379
s(F727732.5353298677
F4631991.826355495
tp380
(dp381
s(F728298.9886154645
F4630535.122068846
tp382
(dp383
s(F724657.1808506532
F4631959.649798417
tp384
(dp385
s(F728416.0452431991
F4630716.378527694
tp386
(dp387
s(F724592.141465068
F4632483.004113668
tp388
(dp389
s(F724761.252566339
F4632116.869504925
tp390
(dp391
s(F727935.2773578016
F4632065.074309645
tp392
(dp393
s(F728461.5517589625
F4632734.26779185
tp394
(dp395
s(F729864.9742571779
F4628945.519893037
tp396
(dp397
s(F728271.3171141271
F4632387.093135622
tp398
(dp399
s(F727998.899583419
F4630635.904539208
tp400
(dp401
s(F727402.8626071409
F4631781.096196294
tp402
(dp403
s(F728965.6743760285
F4631743.377329268
tp404
(dp405
s(F725931.4680210997
F4632250.423800881
tp406
(dp407
s(F729678.2662913396
F4630947.0708854245
tp408
(dp409
s(F728381.087111431
F4631743.648752601
tp410
(dp411
s(F725179.7467832158
F4631230.087638599
tp412
(dp413
s(F727741.0498387511
F4631180.544297418
tp414
(dp415
s(F727744.8260648369
F4631599.042711487
tp416
(dp417
s(F728971.5680986852
F4632212.747349851
tp418
(dp419
s(F727451.52506709
F4632103.00231621
tp420
(dp421
s(F724799.1809815308
F4632042.705297973
tp422
(dp423
s(F728468.7282729447
F4632829.533963107
tp424
(dp425
s(F729776.5617357248
F4633754.1184659675
tp426
(dp427
s(F727661.461909629
F4632267.187655033
tp428
(dp429
s(F727921.2775405501
F4633257.853791843
tp430
(dp431
s(F728032.71061219
F4632760.671161956
tp432
(dp433
s(F727815.9973090849
F4632124.043413935
tp434
(dp435
s(F728521.0369477848
F4632419.27447721
tp436
(dp437
s(F727468.735433178
F4632835.899050315
tp438
(dp439
s(F728132.4480723611
F4631292.750041881
tp440
(dp441
s(F727884.8839327868
F4632913.561497866
tp442
(dp443
s(F727012.831276264
F4630996.505185294
tp444
(dp445
s(F728375.4258034241
F4631507.378096166
tp446
(dp447
s(F725900.3449461921
F4633214.670913299
tp448
(dp449
s(F727991.1881340323
F4632301.060040966
tp450
(dp451
s(F726264.6108973448
F4633767.525428516
tp452
(dp453
s(F727773.5613661247
F4631232.934365311
tp454
(dp455
s(F728161.4858910907
F4630813.720352703
tp456
(dp457
s(F728420.1457844215
F4630601.2440257175
tp458
(dp459
s(F727317.9427992324
F4632126.191697331
tp460
(dp461
s(F727979.2314122722
F4632802.644758684
tp462
(dp463
s(F726999.3773050933
F4634232.354082956
tp464
(dp465
s(F727893.8094297142
F4633118.257010953
tp466
(dp467
s(F728521.2580538179
F4632812.098365611
tp468
(dp469
s(F727729.9990457414
F4631232.32212005
tp470
(dp471
s(F724650.5087041763
F4631952.437302046
tp472
(dp473
s(F728239.1895828937
F4631416.542017237
tp474
(dp475
s(F728029.4367409265
F4631668.629349684
tp476
(dp477
s(F725168.1132012199
F4633450.605034971
tp478
(dp479
s(F728608.4918170609
F4632581.026393562
tp480
(dp481
s(F728021.4737335377
F4632140.120369077
tp482
(dp483
s(F728684.9569593335
F4630711.317789298
tp484
(dp485
s(F729212.6435106986
F4631371.715589921
tp486
(dp487
s(F726203.3036678045
F4633461.915100616
tp488
(dp489
s(F728119.1858354588
F4631747.949240909
tp490
(dp491
s(F728061.8809991396
F4632175.56186292
tp492
(dp493
s(F729567.6577481428
F4632631.839216878
tp494
(dp495
s(F725067.211299603
F4633460.090781249
tp496
(dp497
s(F729429.954683168
F4631250.64945156
tp498
(dp499
s(F728126.2493309983
F4632677.5637611495
tp500
(dp501
s(F728958.6109288177
F4632201.883009868
tp502
(dp503
s(F729201.2805355573
F4633363.680350743
tp504
(dp505
s(F728682.2089037469
F4630633.533536969
tp506
(dp507
s(F728553.4999198893
F4631984.814922466
tp508
(dp509
s(F729068.1863047086
F4631586.383659422
tp510
(dp511
s(F727226.3262357127
F4633054.30469262
tp512
(dp513
s(F728762.6295774302
F4631843.016164692
tp514
(dp515
s(F725984.0375982595
F4629389.410405695
tp516
(dp517
s(F728444.1319174186
F4632530.410080707
tp518
(dp519
s(F727404.8688828783
F4631444.14685402
tp520
(dp521
s(F729210.4286052225
F4631715.110739043
tp522
(dp523
s(F728483.130829698
F4631530.722516304
tp524
(dp525
s(F727373.152007082
F4631027.427565214
tp526
(dp527
s(F728063.0301295612
F4630656.738218881
tp528
(dp529
s(F727867.7805880614
F4633719.430158036
tp530
(dp531
s(F728633.538580009
F4631908.460396009
tp532
(dp533
s(F727849.4129105412
F4632132.246565969
tp534
(dp535
s(F725138.39745622
F4634012.530779428
tp536
(dp537
s(F725154.5352186314
F4631188.277934591
tp538
(dp539
s(F727733.3421069515
F4631205.75222469
tp540
(dp541
s(F728022.8307989786
F4630686.131958817
tp542
(dp543
s(F727729.4023839523
F4631068.575588884
tp544
(dp545
s(F726475.6063899203
F4632539.998494855
tp546
(dp547
s(F727849.2200363236
F4632132.246565969
tp548
(dp549
s(F728844.3245670937
F4631715.141496911
tp550
(dp551
s(F726636.1027871186
F4632741.278449635
tp552
(dp553
s(F729822.4053214818
F4632604.917557038
tp554
(dp555
s(F728040.7285173867
F4631943.606029236
tp556
(dp557
s(F724550.8523048126
F4632302.676132171
tp558
(dp559
s(F727560.5284006597
F4631189.568767119
tp560
(dp561
s(F725396.8752380656
F4633407.369826292
tp562
(dp563
s(F728770.6890004126
F4631002.730883477
tp564
(dp565
s(F728179.1365034595
F4632341.697314924
tp566
(dp567
s(F728680.2630826856
F4632178.727404295
tp568
(dp569
s(F729634.0738265726
F4631110.713250199
tp570
(dp571
s(F726345.6542054281
F4633383.068515438
tp572
(dp573
s(F727312.8464071109
F4632132.45915058
tp574
(dp575
s(F727632.957364347
F4631521.111998735
tp576
(dp577
s(F729088.1758663505
F4631272.015041489
tp578
(dp579
s(F727212.828860905
F4632764.1382592525
tp580
(dp581
s(F727091.5372080798
F4631717.049453734
tp582
(dp583
s(F727977.5889129568
F4631422.740378108
tp584
(dp585
s(F729675.0710133899
F4633518.312213309
tp586
(dp587
s(F724539.7263689208
F4631876.258334423
tp588
(dp589
s(F728421.5210681092
F4631875.659405485
tp590
(dp591
s(F728119.2692560875
F4631748.022969116
tp592
(dp593
s(F728095.4574558064
F4631880.862325012
tp594
(dp595
s(F725203.4880003525
F4631068.113816458
tp596
(dp597
s(F723349.0547435044
F4633761.29923195
tp598
(dp599
s(F726527.3596068854
F4634080.756968588
tp600
(dp601
s(F728615.4323211496
F4632279.959894167
tp602
(dp603
s(F726169.1880161108
F4632872.843706683
tp604
(dp605
s(F728771.3020417456
F4631541.400841073
tp606
(dp607
s(F727217.378053271
F4631189.082831979
tp608
(dp609
s(F727815.8044348673
F4632124.043413935
tp610
(dp611
s(F727892.1920261204
F4630388.072427527
tp612
(dp613
s(F726396.8222934516
F4633696.250227833
tp614
(dp615
s(F728930.0765292625
F4632755.14893453
tp616
(dp617
s(F729564.8837038452
F4633919.146030051
tp618
(dp619
s(F728321.7955507009
F4632000.738142483
tp620
(dp621
s(F726002.654428205
F4633323.616947633
tp622
(dp623
s(F728101.0273844393
F4632908.68772428
tp624
(dp625
s(F727501.1528820872
F4631570.150343371
tp626
(dp627
s(F724622.006754156
F4632139.27079971
tp628
(dp629
s(F726695.2973779052
F4630823.019350788
tp630
(dp631
s(F727911.9707224206
F4632945.438683092
tp632
(dp633
s(F728704.1888070406
F4632140.5905886125
tp634
(dp635
s(F726608.6155082049
F4632847.4440087
tp636
(dp637
s(F728604.7917315748
F4632296.270615568
tp638
(dp639
s(F728570.550418529
F4632446.75961431
tp640
(dp641
s(F728804.9418171004
F4630432.388758342
tp642
(dp643
s(F726180.5470496845
F4632700.808669806
tp644
(dp645
s(F726679.2320452142
F4632561.583108358
tp646
(dp647
s(F725491.5438263947
F4633439.92869529
tp648
(dp649
s(F727774.2296124296
F4632248.659069085
tp650
(dp651
s(F727904.188254968
F4632405.653728924
tp652
(dp653
s(F729013.4438309981
F4631998.897306046
tp654
(dp655
s(F726368.1235148873
F4632145.779319484
tp656
(dp657
s(F728618.7167365394
F4630881.038737223
tp658
(dp659
s(F726008.4390609307
F4633676.260054162
tp660
(dp661
s(F728101.5996920384
F4632907.7064794125
tp662
(dp663
s(F727226.2841460735
F4633055.625763786
tp664
(dp665
s(F726430.9409596003
F4631020.478873167
tp666
(dp667
s(F728068.1176288077
F4630614.662767228
tp668
(dp669
s(F728664.8643691958
F4630917.863927344
tp670
(dp671
s(F723473.1595553795
F4632931.465369329
tp672
(dp673
s(F727565.5289352797
F4631382.243923443
tp674
(dp675
s(F729185.2926239066
F4631350.607051305
tp676
(dp677
s(F724945.2539824693
F4633006.308413825
tp678
(dp679
s(F727995.8607604454
F4633148.640090804
tp680
(dp681
s(F727216.6420967213
F4631546.52384121
tp682
(dp683
s(F728314.0865971061
F4630502.592576575
tp684
(dp685
s(F729656.7098364823
F4630694.167646158
tp686
(dp687
s(F727898.4326808064
F4632929.333516858
tp688
(dp689
s(F724963.391528518
F4634473.725525812
tp690
(dp691
s(F726287.580718046
F4632786.78882651
tp692
(dp693
s(F729012.5096368955
F4630485.952190727
tp694
(dp695
s(F726492.2061906102
F4633467.861842199
tp696
(dp697
s(F727446.074310411
F4632118.565068769
tp698
(dp699
s(F728991.7593916691
F4631573.259732309
tp700
(dp701
s(F724669.4282472077
F4631969.483153391
tp702
(dp703
s(F728240.0166194064
F4632727.677658365
tp704
(dp705
s(F729531.8438617149
F4633935.644825345
tp706
(dp707
s(F726615.5046853792
F4631541.522963035
tp708
(dp709
s(F726525.8003416518
F4632650.965273109
tp710
(dp711
s(F727593.6692021153
F4631678.584297002
tp712
(dp713
s(F729230.5728435717
F4631383.1846328955
tp714
(dp715
s(F725976.7996902687
F4633512.421114313
tp716
(dp717
s(F724658.7622777099
F4631959.699596804
tp718
(dp719
s(F728166.0843970547
F4632324.8441856485
tp720
(dp721
s(F731199.4938504525
F4630957.840961872
tp722
(dp723
s(F725977.0630058948
F4633514.992326622
tp724
(dp725
s(F727518.184219662
F4632235.717757232
tp726
(dp727
s(F728825.3748999396
F4631955.043469165
tp728
(dp729
s(F727745.6430894894
F4631294.622136245
tp730
(dp731
s(F728467.6389156752
F4631830.118174891
tp732
(dp733
s(F728414.5658626399
F4631711.0409979075
tp734
(dp735
s(F725916.0414234584
F4632960.632804432
tp736
(dp737
s(F727189.6187861799
F4632034.731895083
tp738
(dp739
s(F728508.6495154193
F4632086.862135807
tp740
(dp741
s(F726400.389735997
F4633667.686420177
tp742
(dp743
s(F726362.1082355758
F4633254.988686624
tp744
(dp745
s(F727882.0055880835
F4633362.749923751
tp746
(dp747
s(F726289.5992196501
F4632785.639860204
tp748
(dp749
s(F728873.1673577781
F4631881.574673017
tp750
(dp751
s(F728797.099659346
F4631787.321910296
tp752
(dp753
s(F728286.7189687737
F4630520.835522417
tp754
(dp755
s(F728331.0772181919
F4630707.324059718
tp756
(dp757
s(F728575.3359261854
F4631796.442371214
tp758
(dp759
s(F727325.207608375
F4630662.98927952
tp760
(dp761
s(F730136.9798474425
F4633015.108355239
tp762
(dp763
s(F728424.570723455
F4631458.265295695
tp764
(dp765
s(F727843.0896611041
F4632170.614616393
tp766
(dp767
s(F728225.8264014801
F4630677.0587361725
tp768
(dp769
s(F727767.0900048219
F4632120.836734954
tp770
(dp771
s(F726064.609339201
F4630086.872348658
tp772
(dp773
s(F727417.1031963971
F4632432.68001016
tp774
(dp775
s(F729385.4503112381
F4631206.868969908
tp776
(dp777
s(F728545.0466901592
F4632697.705391532
tp778
(dp779
s(F728147.1224198302
F4632273.190092046
tp780
(dp781
s(F726318.2611754737
F4633358.07927658
tp782
(dp783
s(F726517.9151834664
F4632781.4288909845
tp784
(dp785
s(F727583.7654418792
F4631345.0337482495
tp786
(dp787
s(F729233.8966447223
F4633463.878577556
tp788
(dp789
s(F728241.62687238
F4630422.245901344
tp790
(dp791
s(F728028.8800985152
F4631668.137400657
tp792
(dp793
s(F727548.1902871036
F4631315.666566696
tp794
(dp795
s(F728380.6059180142
F4632487.695348086
tp796
(dp797
s(F728457.883212416
F4632511.287469881
tp798
(dp799
s(F727843.1275142595
F4632170.566605018
tp800
(dp801
s(F727919.1128365126
F4632237.845133024
tp802
(dp803
s(F728203.1606626901
F4632359.313082784
tp804
(dp805
s(F728545.8465884556
F4630824.128591656
tp806
(dp807
s(F727922.941355062
F4633013.259133458
tp808
(dp809
s(F724657.6473082518
F4631958.7185370345
tp810
(dp811
s(F727704.5252371902
F4632283.2342211725
tp812
(dp813
s(F729658.6308007092
F4630691.33944068
tp814
(dp815
s(F725773.6140886999
F4631454.813526391
tp816
(dp817
s(F729640.5023638355
F4630722.212854114
tp818
(dp819
s(F727643.4430953368
F4632727.562433023
tp820
(dp821
s(F726997.941714454
F4634229.313977048
tp822
(dp823
s(F728189.7557361568
F4633203.526521896
tp824
(dp825
s(F728011.8029704535
F4632132.210679294
tp826
(dp827
s(F726678.0954639415
F4632654.914284366
tp828
(dp829
s(F725081.9102351557
F4633866.252217513
tp830
(dp831
s(F726379.8479708114
F4633754.2881173305
tp832
(dp833
s(F729109.5490611134
F4631523.353480334
tp834
(dp835
s(F728687.3436717491
F4631545.2675764905
tp836
(dp837
s(F727732.1354478118
F4632296.365076472
tp838
(dp839
s(F727802.978240897
F4632351.179509729
tp840
(dp841
s(F725026.6095814506
F4632188.034203262
tp842
(dp843
s(F726615.6810014477
F4632724.51262158
tp844
(dp845
s(F728070.4692057244
F4631909.46419039
tp846
(dp847
s(F728544.1972221225
F4631828.679746407
tp848
(dp849
s(F728194.0195982729
F4630477.745148748
tp850
(dp851
s(F724482.5949015499
F4632317.61162436
tp852
(dp853
s(F727381.3368807395
F4633082.448028645
tp854
(dp855
s(F728454.9539764317
F4631221.036567812
tp856
(dp857
s(F725016.95398938
F4633961.902813891
tp858
(dp859
s(F727888.2274373128
F4633579.14146503
tp860
(dp861
ssS'graph'
p862
(dp863
sS'edge'
p864
(dp865
g8
(dp866
(F725916.0414234584
F4632960.632804432
tp867
(dp868
I0
(dp869
S'weight'
p870
F47.89138471905119
sss(F726169.1880161108
F4632872.843706683
tp871
(dp872
I0
(dp873
g870
F220.10169099454458
ssssg10
(dp874
(F728025.9285397108
F4631217.123794687
tp875
(dp876
I0
(dp877
g870
F59.771397838633916
sss(F727977.5889129568
F4631422.740378108
tp878
(dp879
I0
(dp880
g870
F153.10876097015637
ssssg12
(dp881
g76
(dp882
I0
(dp883
g870
F226.68774000853287
sss(F729512.0593959909
F4631340.768176898
tp884
(dp885
I0
(dp886
g870
F134.9068933129657
sss(F729429.954683168
F4631250.64945156
tp887
(dp888
I0
(dp889
g870
F172.1614577097801
ssssg14
(dp890
(F726685.8531262018
F4631599.444357995
tp891
(dp892
I0
(dp893
g870
F176.2577943173194
sssg220
(dp894
I0
(dp895
g870
F697.9722711422003
sss(F726846.615433378
F4631724.930683789
tp896
(dp897
I0
(dp898
g870
F28.130818392798517
ssssg16
(dp899
(F727774.2353016367
F4632248.668129582
tp900
(dp901
I0
(dp902
g870
F1.83889893685192
sss(F727843.0896611041
F4632170.614616393
tp903
(dp904
I0
(dp905
g870
F102.24412988323888
ssssg18
(dp906
g194
(dp907
I0
(dp908
g870
F128.67249131590978
sss(F724945.2539824693
F4633006.308413825
tp909
(dp910
I0
(dp911
g870
F502.15022816390797
sss(F725166.6456046148
F4632227.576128729
tp912
(dp913
I0
(dp914
g870
F625.7560028348698
ssssg20
(dp915
(F726042.5418736974
F4633688.900763541
tp916
(dp917
I0
(dp918
g870
F181.8136927165988
sss(F726203.3036678045
F4633461.915100616
tp919
(dp920
I0
(dp921
g870
F298.822528209109
sss(F726264.6108973448
F4633767.525428516
tp922
(dp923
I0
(dp924
g870
F53.764986628410384
ssssg22
(dp925
(F725595.1891667515
F4632860.111522688
tp926
(dp927
I0
(dp928
g870
F210.43817169326917
sss(F725721.7056098223
F4633105.644505014
tp929
(dp930
I0
(dp931
g870
F73.33249650329861
sss(F725916.0414234584
F4632960.632804432
tp932
(dp933
I0
(dp934
g870
F227.94136246606345
ssssg24
(dp935
(F724321.6679559291
F4632075.024204837
tp936
(dp937
I0
(dp938
g870
F4.494352940505145
sss(F724482.5949015499
F4632317.61162436
tp939
(dp940
I0
(dp941
g870
F287.35666325773263
ssssg26
(dp942
g650
(dp943
I0
(dp944
g870
F1.837045001667416
ssssg28
(dp945
g244
(dp946
I0
(dp947
g870
F1671.8500857140136
sss(F726008.4390609307
F4633676.260054162
tp948
(dp949
I0
(dp950
g870
F36.37084910577372
sss(F726213.9693830318
F4633749.468231625
tp951
g917
ssg30
(dp952
(F727741.0498387511
F4631180.544297418
tp953
(dp954
I0
(dp955
g870
F235.10580874944372
sssg370
(dp956
I0
(dp957
g870
F319.41665635175104
sssg116
(dp958
I0
(dp959
g870
F80.72640533291975
ssssg32
(dp960
(F725901.1494469866
F4631511.312989577
tp961
(dp962
I0
(dp963
g870
F142.928789265148
sssg816
(dp964
I0
(dp965
g870
F21.513282523128595
sss(F725203.4880003525
F4631068.113816458
tp966
(dp967
I0
(dp968
g870
F753.7673701380019
ssssg34
(dp969
(F728249.9793428495
F4631703.570101636
tp970
(dp971
I0
(dp972
g870
F38.66906066702583
sssg70
(dp973
I0
(dp974
g870
F81.33002872866075
ssssg36
(dp975
(F727319.2082004835
F4632125.336194404
tp976
(dp977
I0
(dp978
g870
F23.881490572260958
sssg698
(dp979
I0
(dp980
g870
F106.49836980517907
ssssg38
(dp981
g350
(dp982
I0
(dp983
g870
F145.41433325282063
sssg752
(dp984
I0
(dp985
g870
F98.65980472638026
ssssg40
(dp986
g780
(dp987
I0
(dp988
g870
F40.87079301218954
sss(F728166.0843970547
F4632324.8441856485
tp989
(dp990
I0
(dp991
g870
F14.246214784118045
ssssg42
(dp992
(F728034.1653009783
F4633079.282497208
tp993
(dp994
I0
(dp995
g870
F67.18663418066158
sssg680
(dp996
I0
(dp997
g870
F19.50775466026323
sss(F728013.1524080249
F4633148.748295793
tp998
(dp999
I0
(dp1000
g870
F5.388182530113163
ssssg44
(dp1001
(F727745.6430894894
F4631294.622136245
tp1002
(dp1003
I0
(dp1004
g870
F299.7475530279037
sss(F727685.0132996463
F4631526.552047027
tp1005
(dp1006
I0
(dp1007
g870
F6.289346774660189
ssssg46
(dp1008
g820
(dp1009
I0
(dp1010
g870
F189.5822367090016
sssg298
(dp1011
I0
(dp1012
g870
F207.00460340932815
sssg652
(dp1013
I0
(dp1014
g870
F240.18073153202224
ssssg48
(dp1015
(F725465.8074068476
F4632670.73294262
tp1016
(dp1017
I0
(dp1018
g870
F239.34791241099455
ssssg50
(dp1019
g770
(dp1020
I0
(dp1021
g870
F136.46365356991035
sssg428
(dp1022
I0
(dp1023
g870
F51.83286383256639
sss(F727446.074310411
F4632118.565068769
tp1024
(dp1025
I0
(dp1026
g870
F254.2305361142384
ssssg52
(dp1027
g834
(dp1028
I0
(dp1029
g870
F112.50968412882519
ssssg54
(dp1030
g144
(dp1031
I0
(dp1032
g870
F332.2647570937348
ssssg56
(dp1033
g60
(dp1034
I0
(dp1035
g870
F5.074481785630407
sssg156
(dp1036
I0
(dp1037
g870
F31.930370524817377
sssg18
g913
ssg58
(dp1038
g206
(dp1039
I0
(dp1040
g870
F163.37534069970056
ssI1
(dp1041
g870
F163.37534069970056
ssI2
(dp1042
g870
F163.37534069970056
sssg416
(dp1043
I0
(dp1044
g870
F69.16164577660835
sssg166
(dp1045
I0
(dp1046
g870
F31.730575936683472
ssssg60
(dp1047
g56
g1034
s(F725824.2050481692
F4631624.807255327
tp1048
(dp1049
I0
(dp1050
g870
F896.0687731960273
sss(F725030.5220191204
F4632188.795378779
tp1051
(dp1052
I0
(dp1053
g870
F139.12632250766242
ssssg62
(dp1054
g690
(dp1055
I0
(dp1056
g870
F325.80274951247765
sssg858
(dp1057
I0
(dp1058
g870
F707.8843177456447
ssssg64
(dp1059
g274
(dp1060
I0
(dp1061
g870
F269.291489082418
ssI1
(dp1062
g870
F139.26450193570207
sss(F725164.7990262255
F4632222.849553473
tp1063
g1049
ssg66
(dp1064
g648
(dp1065
I0
(dp1066
g870
F410.1001089305104
sss(F725976.7996902687
F4633512.421114313
tp1067
(dp1068
I0
(dp1069
g870
F520.321010829966
sssg22
g930
ssg68
(dp1070
g152
(dp1071
I0
(dp1072
g870
F365.9655631462918
sss(F727534.0742046055
F4632465.283567255
tp1073
(dp1074
I0
(dp1075
g870
F449.94155427306566
ssssg70
(dp1076
g34
g973
sg592
(dp1077
I0
(dp1078
g870
F69.55849048203021
sssg594
(dp1079
I0
(dp1080
g870
F115.18124893516917
ssssg72
(dp1081
(F727737.933509986
F4631615.6103266515
tp1082
(dp1083
I0
(dp1084
g870
F234.07127942661606
sssg226
(dp1085
I0
(dp1086
g870
F180.0913262926635
ssssg74
(dp1087
(F729385.4503112381
F4631206.868969908
tp1088
(dp1089
I0
(dp1090
g870
F314.66984163892795
sssg212
(dp1091
I0
(dp1092
g870
F146.7520353780798
sssg818
(dp1093
I0
(dp1094
g870
F295.8961724307381
ssssg76
(dp1095
(F729391.2088385731
F4631384.789785755
tp1096
g882
sg164
(dp1097
I0
(dp1098
g870
F158.5163661086649
sss(F729212.6435106986
F4631371.715589921
tp1099
(dp1100
I0
(dp1101
g870
F5.045722314311144
ssssg78
(dp1102
g704
(dp1103
I0
(dp1104
g870
F0.964519981234343
sss(F728384.4201326583
F4632590.299336023
tp1105
(dp1106
I0
(dp1107
g870
F198.64555072108007
sssg500
(dp1108
I0
(dp1109
g870
F147.84770786463451
ssssg80
(dp1110
g676
(dp1111
I0
(dp1112
g870
F366.71087631108117
sss(F728969.4360062843
F4631112.756734935
tp1113
(dp1114
I0
(dp1115
g870
F106.64115990250752
ssssg82
(dp1116
g176
(dp1117
I0
(dp1118
g870
F63.62197737682299
sss(F727775.4506711953
F4632247.288120112
tp1119
g901
ssg84
(dp1120
(F727189.6187861799
F4632034.731895083
tp1121
(dp1122
I0
(dp1123
g870
F529.6805840399928
sss(F727216.6420967213
F4631546.52384121
tp1124
(dp1125
I0
(dp1126
g870
F36.355313831708884
sss(F727404.8688828783
F4631444.14685402
tp1127
(dp1128
I0
(dp1129
g870
F177.98634025529088
ssssg86
(dp1130
(F727325.207608375
F4630662.98927952
tp1131
(dp1132
I0
(dp1133
g870
F100.71568597766823
ssssg88
(dp1134
(F729178.9132283742
F4631991.98381625
tp1135
(dp1136
I0
(dp1137
g870
F169.57158944626048
sssg522
(dp1138
I0
(dp1139
g870
F210.07374913087256
sssg404
(dp1140
I0
(dp1141
g870
F158.12758066631343
ssssg90
(dp1142
g316
(dp1143
I0
(dp1144
g870
F53.293810493684845
sss(F728318.3565299821
F4631624.819116834
tp1145
(dp1146
I0
(dp1147
g870
F50.999812236031914
ssssg92
(dp1148
(F728944.9686424374
F4631152.263791159
tp1149
(dp1150
I0
(dp1151
g870
F46.61838460466159
sss(F729067.0179315833
F4631103.775535202
tp1152
g1114
ssg94
(dp1153
(F728545.0466901592
F4632697.705391532
tp1154
(dp1155
I0
(dp1156
g870
F70.87408013943434
sssg468
(dp1157
I0
(dp1158
g870
F48.46555136409254
sssg394
(dp1159
I0
(dp1160
g870
F64.67370597274187
ssssg96
(dp1161
g258
(dp1162
I0
(dp1163
g870
F84.73285618534183
sss(F728483.130829698
F4631530.722516304
tp1164
(dp1165
I0
(dp1166
g870
F210.4701234551378
sssg734
(dp1167
I0
(dp1168
g870
F5.198839598842575
ssssg98
(dp1169
g290
(dp1170
I0
(dp1171
g870
F1033.971498595616
ssssg100
(dp1172
g846
(dp1173
I0
(dp1174
g870
F16.820866073439458
sss(F728293.0408764548
F4632070.289103353
tp1175
(dp1176
I0
(dp1177
g870
F282.5891174052685
ssI1
(dp1178
g870
F282.5891174052685
sss(F728095.4574558064
F4631880.862325012
tp1179
(dp1180
I0
(dp1181
g870
F21.159120617556358
ssssg102
(dp1182
(F727775.4488190793
F4632247.285191394
tp1183
(dp1184
I0
(dp1185
g870
F1.778824671693064
ssssg104
(dp1186
(F727661.461909629
F4632267.187655033
tp1187
(dp1188
I0
(dp1189
g870
F243.10514539552528
sssg68
g1074
s(F727417.1031963971
F4632432.68001016
tp1190
(dp1191
I0
(dp1192
g870
F121.42985092862048
ssssg106
(dp1193
g136
(dp1194
I0
(dp1195
g870
F1.531129061403318
sssg338
(dp1196
I0
(dp1197
g870
F1.440745001468647
ssssg108
(dp1198
g496
(dp1199
I0
(dp1200
g870
F54.900334999901276
ssssg110
(dp1201
(F727548.1902871036
F4631315.666566696
tp1202
(dp1203
I0
(dp1204
g870
F126.99792735076183
sss(F727562.3254949934
F4631130.604245016
tp1205
(dp1206
I0
(dp1207
g870
F58.99213611688758
ssssg112
(dp1208
g372
(dp1209
I0
(dp1210
g870
F125.19135428327485
ssssg114
(dp1211
g138
(dp1212
I0
(dp1213
g870
F130.72002517546167
ssssg116
(dp1214
(F728022.6800876785
F4631276.570257836
tp1215
g876
s(F727971.2397797378
F4631165.885940926
tp1216
g958
ssg118
(dp1217
(F728801.7843468464
F4631599.733513711
tp1218
(dp1219
I0
(dp1220
g870
F215.20189909429894
sss(F729068.1863047086
F4631586.383659422
tp1221
(dp1222
I0
(dp1223
g870
F156.87164666352882
sss(F728965.6743760285
F4631743.377329268
tp1224
(dp1225
I0
(dp1226
g870
F30.642285454690743
ssssg120
(dp1227
(F727888.2274373128
F4633579.14146503
tp1228
(dp1229
I0
(dp1230
g870
F1065.9375787291751
ssssg122
(dp1231
(F728032.71061219
F4632760.671161956
tp1232
(dp1233
I0
(dp1234
g870
F80.86858575684697
sss(F728126.2493309983
F4632677.5637611495
tp1235
(dp1236
I0
(dp1237
g870
F44.47835994876593
ssssg124
(dp1238
(F724061.8961527605
F4631531.791965361
tp1239
(dp1240
I0
(dp1241
g870
F605.3681143817648
sss(F724323.8752065112
F4632078.939208441
tp1242
g937
s(F724539.7263689208
F4631876.258334423
tp1243
(dp1244
I0
(dp1245
g870
F297.57390191772663
ssssg126
(dp1246
(F727997.2381720252
F4630648.856320788
tp1247
(dp1248
I0
(dp1249
g870
F7.244646962452042
ssssg128
(dp1250
g480
(dp1251
I0
(dp1252
g870
F88.21967275811664
sssg616
(dp1253
I0
(dp1254
g870
F372.80899890587517
sss(F728570.550418529
F4632446.75961431
tp1255
(dp1256
I0
(dp1257
g870
F103.17593118569107
ssssg130
(dp1258
g348
(dp1259
I0
(dp1260
g870
F393.6774865541126
ssssg132
(dp1261
g398
(dp1262
I0
(dp1263
g870
F113.44139428150942
sss(F728380.6059180142
F4632487.695348086
tp1264
(dp1265
I0
(dp1266
g870
F50.709652598825514
sss(F727904.188254968
F4632405.653728924
tp1267
(dp1268
I0
(dp1269
g870
F444.6226674641738
ssssg134
(dp1270
g582
(dp1271
I0
(dp1272
g870
F123.9378320412011
sssg374
(dp1273
I0
(dp1274
g870
F276.4706637826822
sss(F727216.6420967213
F4631546.52384121
tp1275
(dp1276
I0
(dp1277
g870
F135.16708638234488
ssssg136
(dp1278
(F727340.1646127907
F4632114.151579405
tp1279
g977
sg106
g1194
ssg138
(dp1280
g114
g1212
ssg140
(dp1281
(F726318.2611754737
F4633358.07927658
tp1282
(dp1283
I0
(dp1284
g870
F47.2278941385775
sss(F726203.3036678045
F4633461.915100616
tp1285
(dp1286
I0
(dp1287
g870
F315.97473369814986
sssg744
(dp1288
I0
(dp1289
g870
F66.26777716235149
ssssg142
(dp1290
g148
(dp1291
I0
(dp1292
g870
F148.9166539101413
sss(F728962.0627664127
F4633112.457004273
tp1293
(dp1294
I0
(dp1295
g870
F5.948643742529445
ssssg144
(dp1296
g54
g1031
s(F728423.6760749947
F4630480.533640647
tp1297
(dp1298
I0
(dp1299
g870
F30.152172757218164
sss(F728298.9886154645
F4630535.122068846
tp1300
(dp1301
I0
(dp1302
g870
F107.39402426911276
ssssg146
(dp1303
g686
(dp1304
I0
(dp1305
g870
F790.5542349619792
ssssg148
(dp1306
(F728965.9116623506
F4633107.92132765
tp1307
g1291
s(F728930.0765292625
F4632755.14893453
tp1308
(dp1309
I0
(dp1310
g870
F236.9164898770029
ssssg150
(dp1311
(F728375.4258034241
F4631507.378096166
tp1312
(dp1313
I0
(dp1314
g870
F130.5872495730361
sss(F728414.5658626399
F4631711.0409979075
tp1315
(dp1316
I0
(dp1317
g870
F129.19568365645847
sssg90
g1146
ssg152
(dp1318
(F727209.8961037353
F4632760.170851935
tp1319
g1071
s(F727226.2841460735
F4633055.625763786
tp1320
(dp1321
I0
(dp1322
g870
F129.37346500710322
ssssg154
(dp1323
g708
(dp1324
I0
(dp1325
g870
F307.0290978841374
ssssg156
(dp1326
(F725166.6456046148
F4632227.576128729
tp1327
g1036
sg330
(dp1328
I0
(dp1329
g870
F535.4483776718264
ssssg158
(dp1330
g580
(dp1331
I0
(dp1332
g870
F4.440272319709263
sssg210
(dp1333
I0
(dp1334
g870
F476.18080323980143
ssssg160
(dp1335
g604
(dp1336
I0
(dp1337
g870
F167.87139653925027
ssssg162
(dp1338
g794
(dp1339
I0
(dp1340
g870
F45.12324293013229
sss(F727583.7654418792
F4631345.0337482495
tp1341
(dp1342
I0
(dp1343
g870
F5.074648954392534
ssI1
(dp1344
g870
F5.074648954392534
sssg540
(dp1345
I0
(dp1346
g870
F237.46741042747368
ssI1
(dp1347
g870
F237.46741042747368
ssssg164
(dp1348
(F729109.5490611134
F4631523.353480334
tp1349
(dp1350
I0
(dp1351
g870
F20.087352316422418
sss(F729209.4409303941
F4631375.614266914
tp1352
g1097
ssg166
(dp1353
(F727696.4856245794
F4631555.373154681
tp1354
g1045
s(F727689.7435908804
F4631522.407143205
tp1355
g1006
s(F727632.957364347
F4631521.111998735
tp1356
(dp1357
I0
(dp1358
g870
F53.996111183261895
ssssg168
(dp1359
(F726679.2320452142
F4632561.583108358
tp1360
(dp1361
I0
(dp1362
g870
F31.58769459220511
ssssg170
(dp1363
(F726636.1027871186
F4632741.278449635
tp1364
(dp1365
I0
(dp1366
g870
F138.70343994513271
ssssg172
(dp1367
(F726569.0803057437
F4632686.352230362
tp1368
(dp1369
I0
(dp1370
g870
F22.097043296032066
sssg784
(dp1371
I0
(dp1372
g870
F105.99477475336795
sss(F726615.6810014477
F4632724.51262158
tp1373
(dp1374
I0
(dp1375
g870
F38.136304200961305
ssssg174
(dp1376
g310
(dp1377
I0
(dp1378
g870
F563.6848238494994
sssg544
(dp1379
I0
(dp1380
g870
F164.5748004923755
sss(F727562.3254949934
F4631130.604245016
tp1381
(dp1382
I0
(dp1383
g870
F143.46554979677978
ssssg176
(dp1384
g82
g1117
sg312
(dp1385
I0
(dp1386
g870
F1.837335293833071
ssssg178
(dp1387
g516
(dp1388
I0
(dp1389
g870
F452.0930488242228
sss(F726064.609339201
F4630086.872348658
tp1390
(dp1391
I0
(dp1392
g870
F491.8283349300552
sssg230
(dp1393
I0
(dp1394
g870
F1993.8566461145042
ssssg180
(dp1395
(F726527.3596068854
F4634080.756968588
tp1396
(dp1397
I0
(dp1398
g870
F129.559989092176
sss(F726999.3773050933
F4634232.354082956
tp1399
(dp1400
I0
(dp1401
g870
F465.2430162144076
sss(F726360.1517642636
F4633803.792113558
tp1402
(dp1403
I0
(dp1404
g870
F307.25982982413007
ssssg182
(dp1405
(F724945.2539824693
F4633006.308413825
tp1406
(dp1407
I0
(dp1408
g870
F408.822224258251
sssg478
(dp1409
I0
(dp1410
g870
F152.19560366535765
sss(F725396.8752380656
F4633407.369826292
tp1411
(dp1412
I0
(dp1413
g870
F207.0481773022187
ssssg184
(dp1414
g634
(dp1415
I0
(dp1416
g870
F339.51545870790625
sss(F728971.5680986852
F4632212.747349851
tp1417
(dp1418
I0
(dp1419
g870
F12.209432769627398
sss(F728958.6109288177
F4632201.883009868
tp1420
(dp1421
I0
(dp1422
g870
F11.838876695414019
ssssg186
(dp1423
g762
(dp1424
I0
(dp1425
g870
F708.4504060086474
ssssg188
(dp1426
(F727565.2380166536
F4631605.206145283
tp1427
(dp1428
I0
(dp1429
g870
F67.38160654332893
ssssg190
(dp1430
(F727593.6692021153
F4631678.584297002
tp1431
(dp1432
I0
(dp1433
g870
F220.51645504289894
sssg242
(dp1434
I0
(dp1435
g870
F196.14799867930705
sssg402
(dp1436
I0
(dp1437
g870
F138.25426192096978
ssssg192
(dp1438
(F728011.8029704535
F4632132.210679294
tp1439
(dp1440
I0
(dp1441
g870
F7.600636518857685
sss(F727935.2773578016
F4632065.074309645
tp1442
(dp1443
I0
(dp1444
g870
F94.20069227486212
ssssg194
(dp1445
(F724483.1348884697
F4632318.426867637
tp1446
(dp1447
I0
(dp1448
g870
F197.90857135314903
sss(F724663.5897541778
F4632590.623597024
tp1449
g907
ssg196
(dp1450
(F729017.7362828713
F4633170.599774526
tp1451
(dp1452
I0
(dp1453
g870
F266.25139474860663
ssssg198
(dp1454
g464
(dp1455
I0
(dp1456
g870
F2823.223938939234
ssssg200
(dp1457
g344
(dp1458
I0
(dp1459
g870
F143.9533034226636
ssssg202
(dp1460
(F724761.252566339
F4632116.869504925
tp1461
(dp1462
I0
(dp1463
g870
F63.608539799345955
sss(F724622.006754156
F4632139.27079971
tp1464
(dp1465
I0
(dp1466
g870
F80.02521995704586
ssssg204
(dp1467
(F727893.8094297142
F4633118.257010953
tp1468
(dp1469
I0
(dp1470
g870
F49.468240730139776
sss(F727804.9283113137
F4633081.626943023
tp1471
(dp1472
I0
(dp1473
g870
F47.23928500921509
ssssg206
(dp1474
g58
g1039
sg188
g1428
sg674
(dp1475
I0
(dp1476
g870
F250.0475758121194
ssI1
(dp1477
g870
F250.0475758121194
ssI2
(dp1478
g870
F250.0475758121194
ssssg208
(dp1479
(F726525.8003416518
F4632650.965273109
tp1480
(dp1481
I0
(dp1482
g870
F142.08169064775598
ssssg210
(dp1483
(F727209.3479329302
F4632761.381602091
tp1484
g1333
ssg212
(dp1485
(F729600.7494761918
F4631014.159328508
tp1486
g1091
ssg214
(dp1487
(F727882.0055880835
F4633362.749923751
tp1488
(dp1489
I0
(dp1490
g870
F98.64463638169072
sss(F728013.1524080249
F4633148.748295793
tp1491
(dp1492
I0
(dp1493
g870
F160.47062928648353
sssg860
(dp1494
I0
(dp1495
g870
F294.79956297869137
ssssg216
(dp1496
(F726289.5992196501
F4632785.639860204
tp1497
(dp1498
I0
(dp1499
g870
F253.80370058596264
sssg710
(dp1500
I0
(dp1501
g870
F101.09102189012214
sss(F726475.6063899203
F4632539.998494855
tp1502
(dp1503
I0
(dp1504
g870
F56.43991739965119
ssssg218
(dp1505
g702
(dp1506
I0
(dp1507
g870
F352.09043511031666
ssssg220
(dp1508
g14
g894
s(F727189.6187861799
F4632034.731895083
tp1509
(dp1510
I0
(dp1511
g870
F326.96798141410625
sss(F726846.615433378
F4631724.930683789
tp1512
(dp1513
I0
(dp1514
g870
F137.07502320847786
ssssg222
(dp1515
(F727468.735433178
F4632835.899050315
tp1516
(dp1517
I0
(dp1518
g870
F83.84896396657797
sssg512
(dp1519
I0
(dp1520
g870
F334.6250796370618
ssssg224
(dp1521
(F728307.6604702758
F4633364.582260795
tp1522
(dp1523
I0
(dp1524
g870
F367.0676846051617
sss(F727955.6112231173
F4633297.076681268
tp1525
g1492
s(F728014.6482978611
F4633143.571924035
tp1526
g999
ssg226
(dp1527
g72
g1085
sg380
(dp1528
I0
(dp1529
g870
F23.184229176645985
ssssg228
(dp1530
g668
(dp1531
I0
(dp1532
g870
F193.39537339369497
sssg850
(dp1533
I0
(dp1534
g870
F99.55537107795476
sss(F728298.9886154645
F4630535.122068846
tp1535
(dp1536
I0
(dp1537
g870
F64.06808859833006
ssssg230
(dp1538
(F726307.4487018035
F4629660.857193117
tp1539
g1393
s(F728063.0301295612
F4630656.738218881
tp1540
(dp1541
I0
(dp1542
g870
F66.26607821280774
sssg126
g1248
ssg232
(dp1543
(F726615.5046853792
F4631541.522963035
tp1544
(dp1545
I0
(dp1546
g870
F91.12586156433322
sssg656
(dp1547
I0
(dp1548
g870
F632.0640169035764
sss(F726826.2756694907
F4631705.499430151
tp1549
g892
ssg234
(dp1550
(F728147.1224198302
F4632273.190092046
tp1551
(dp1552
I0
(dp1553
g870
F63.24204512438008
sssg492
(dp1554
I0
(dp1555
g870
F68.85396962124517
ssssg236
(dp1556
g590
(dp1557
I0
(dp1558
g870
F117.84287527926759
sss(F728381.087111431
F4631743.648752601
tp1559
(dp1560
I0
(dp1561
g870
F65.83205199781132
ssssg238
(dp1562
g418
(dp1563
I0
(dp1564
g870
F358.5416588504418
sss(F729822.4053214818
F4632604.917557038
tp1565
(dp1566
I0
(dp1567
g870
F960.966992894426
sss(F729068.5282015018
F4631863.279299082
tp1568
g1136
ssg240
(dp1569
g458
(dp1570
I0
(dp1571
g870
F164.59721652387213
ssssg242
(dp1572
(F727451.0649473364
F4631651.695364726
tp1573
g1434
sg520
(dp1574
I0
(dp1575
g870
F23.67669932664676
ssI1
(dp1576
g870
F23.67669932664676
ssI2
(dp1577
g870
F23.67669932664676
ssssg244
(dp1578
g28
g946
ssg246
(dp1579
(F727217.378053271
F4631189.082831979
tp1580
(dp1581
I0
(dp1582
g870
F143.2705004706184
ssssg248
(dp1583
g384
(dp1584
I0
(dp1585
g870
F1.506192417219939
sss(F724669.4282472077
F4631969.483153391
tp1586
(dp1587
I0
(dp1588
g870
F14.202393492283349
ssssg250
(dp1589
(F728028.8800985152
F4631668.137400657
tp1590
(dp1591
I0
(dp1592
g870
F0.742875910687335
sssg490
(dp1593
I0
(dp1594
g870
F119.77706422102236
ssssg252
(dp1595
(F726586.181130031
F4632700.344775771
tp1596
g1369
s(F726525.8003416518
F4632650.965273109
tp1597
(dp1598
I0
(dp1599
g870
F55.90589477756352
sssg646
(dp1600
I0
(dp1601
g870
F166.435430139716
ssssg254
(dp1602
g806
(dp1603
I0
(dp1604
g870
F235.71567665925966
ssssg256
(dp1605
(F725154.5352186314
F4631188.277934591
tp1606
(dp1607
I0
(dp1608
g870
F239.548647537385
ssssg258
(dp1609
(F728418.4471356437
F4631714.499849313
tp1610
g1162
s(F728544.1972221225
F4631828.679746407
tp1611
(dp1612
I0
(dp1613
g870
F85.12061110833757
ssssg260
(dp1614
g688
(dp1615
I0
(dp1616
g870
F145.60048364366077
ssssg262
(dp1617
(F724738.5383854043
F4631723.73688523
tp1618
(dp1619
I0
(dp1620
g870
F14.755465835881939
sss(F724539.7263689208
F4631876.258334423
tp1621
(dp1622
I0
(dp1623
g870
F255.42075912926617
sss(F724669.4282472077
F4631969.483153391
tp1624
(dp1625
I0
(dp1626
g870
F740.4081319457098
ssssg264
(dp1627
g792
(dp1628
I0
(dp1629
g870
F166.10123594128157
sss(F727977.5889129568
F4631422.740378108
tp1630
(dp1631
I0
(dp1632
g870
F97.25806938125608
sssg268
(dp1633
I0
(dp1634
g870
F140.53208965293493
ssssg266
(dp1635
(F728239.1895828937
F4631416.542017237
tp1636
(dp1637
I0
(dp1638
g870
F227.86584276042214
sss(F728028.8800985152
F4631668.137400657
tp1639
(dp1640
I0
(dp1641
g870
F140.18807943462238
sssg584
(dp1642
I0
(dp1643
g870
F177.57588800633803
ssssg268
(dp1644
(F727744.8260648369
F4631599.042711487
tp1645
(dp1646
I0
(dp1647
g870
F153.07245966945854
sss(F727981.5276203982
F4631518.124125179
tp1648
g1633
ssg270
(dp1649
(F728633.538580009
F4631908.460396009
tp1650
(dp1651
I0
(dp1652
g870
F71.84029905206009
sss(F728544.1972221225
F4631828.679746407
tp1653
(dp1654
I0
(dp1655
g870
F47.93824330033085
ssssg272
(dp1656
(F728070.4692057244
F4631909.46419039
tp1657
(dp1658
I0
(dp1659
g870
F4.571992312813595
sssg556
(dp1660
I0
(dp1661
g870
F40.70688476589781
ssssg274
(dp1662
(F726251.9408204223
F4631348.80979479
tp1663
(dp1664
I0
(dp1665
g870
F417.0555035546858
sssg64
g1060
s(F725765.3345228384
F4631474.669762542
tp1666
g962
ssg276
(dp1667
(F727729.9990457414
F4631232.32212005
tp1668
(dp1669
I0
(dp1670
g870
F33.77528885494161
sss(F727745.6430894894
F4631294.622136245
tp1671
(dp1672
I0
(dp1673
g870
F30.751996143929155
sss(F727565.5289352797
F4631382.243923443
tp1674
(dp1675
I0
(dp1676
g870
F216.17585335987005
ssssg278
(dp1677
(F728101.0273844393
F4632908.68772428
tp1678
(dp1679
I0
(dp1680
g870
F183.65978390097501
sss(F728014.6482978611
F4633143.571924035
tp1681
g994
sg824
(dp1682
I0
(dp1683
g870
F199.19701619825736
ssssg280
(dp1684
g778
(dp1685
I0
(dp1686
g870
F193.28180293749233
ssI1
(dp1687
g870
F193.28180293749233
sss(F728240.6765748361
F4632726.974268271
tp1688
g1106
s(F728444.1319174186
F4632530.410080707
tp1689
(dp1690
I0
(dp1691
g870
F85.02183316416733
ssssg282
(dp1692
(F725026.6095814506
F4632188.034203262
tp1693
(dp1694
I0
(dp1695
g870
F3.985794360960919
sss(F725164.7990262255
F4632222.849553473
tp1696
g1052
ssg284
(dp1697
g722
(dp1698
I0
(dp1699
g870
F2472.350813641917
sss(F729391.2088385731
F4631384.789785755
tp1700
g885
sg498
(dp1701
I0
(dp1702
g870
F121.91232812478259
ssssg286
(dp1703
g706
(dp1704
I0
(dp1705
g870
F1310.5012871240933
ssssg288
(dp1706
(F728545.0466901592
F4632697.705391532
tp1707
(dp1708
I0
(dp1709
g870
F663.4679548781858
ssI1
(dp1710
g870
F663.4679548781858
sssg328
(dp1711
I0
(dp1712
g870
F80.49950056375242
sssg342
(dp1713
I0
(dp1714
g870
F951.0323323545356
sssg142
g1294
ssg290
(dp1715
(F724321.6679559291
F4632075.024204837
tp1716
g1240
s(F724941.6666924856
F4630933.590732058
tp1717
(dp1718
I0
(dp1719
g870
F1104.6086476151152
sss(F723473.1595553795
F4632931.465369329
tp1720
(dp1721
I0
(dp1722
g870
F1526.2644673261618
sssg98
g1170
ssg292
(dp1723
(F727661.461909629
F4632267.187655033
tp1724
(dp1725
I0
(dp1726
g870
F146.72230916983386
sssg460
(dp1727
I0
(dp1728
g870
F229.75836350569267
ssssg294
(dp1729
(F728873.1673577781
F4631881.574673017
tp1730
(dp1731
I0
(dp1732
g870
F48.48518153948764
sss(F728965.6743760285
F4631743.377329268
tp1733
(dp1734
I0
(dp1735
g870
F117.84672679992667
ssssg296
(dp1736
g346
(dp1737
I0
(dp1738
g870
F48.5905816850036
ssssg298
(dp1739
g46
g1011
sg812
(dp1740
I0
(dp1741
g870
F419.77932719216784
sssg840
(dp1742
I0
(dp1743
g870
F116.21657241319662
ssssg300
(dp1744
(F728704.1888070406
F4632140.5905886125
tp1745
(dp1746
I0
(dp1747
g870
F157.8114938337465
sss(F728825.3748999396
F4631955.043469165
tp1748
(dp1749
I0
(dp1750
g870
F63.80504548467293
sssg502
(dp1751
I0
(dp1752
g870
F285.40205678300316
ssssg302
(dp1753
g678
(dp1754
I0
(dp1755
g870
F192.50672442982432
ssssg304
(dp1756
g578
(dp1757
I0
(dp1758
g870
F186.7064184496067
sssg92
g1150
s(F728770.6890004126
F4631002.730883477
tp1759
(dp1760
I0
(dp1761
g870
F229.6379155646299
ssssg306
(dp1762
(F728501.9754338262
F4632103.099080149
tp1763
(dp1764
I0
(dp1765
g870
F284.36963787048575
sss(F728321.7955507009
F4632000.738142483
tp1766
(dp1767
I0
(dp1768
g870
F81.27809484705676
ssI1
(dp1769
g870
F81.27809484705676
sssg100
g1176
ssg308
(dp1770
(F727884.8839327868
F4632913.561497866
tp1771
(dp1772
I0
(dp1773
g870
F186.54479841708462
sss(F727847.7011662095
F4633100.336774416
tp1774
g1472
ssg310
(dp1775
g174
g1377
ssg312
(dp1776
(F727704.5252371902
F4632283.2342211725
tp1777
(dp1778
I0
(dp1779
g870
F30.125103386741714
sss(F727732.1405902479
F4632296.3732568985
tp1780
g1385
s(F727802.978240897
F4632351.179509729
tp1781
(dp1782
I0
(dp1783
g870
F89.7395040077266
ssssg314
(dp1784
g764
(dp1785
I0
(dp1786
g870
F222.7761290837499
sss(F728454.9539764317
F4631221.036567812
tp1787
(dp1788
I0
(dp1789
g870
F141.19408469655266
sssg564
(dp1790
I0
(dp1791
g870
F372.9883180235708
ssssg316
(dp1792
(F728224.6153150826
F4631732.758495705
tp1793
g971
s(F728284.9363738117
F4631663.342794701
tp1794
g1143
ssg318
(dp1795
(F724550.8523048126
F4632302.676132171
tp1796
(dp1797
I0
(dp1798
g870
F3.510045896719538
sssg388
(dp1799
I0
(dp1800
g870
F238.71131818586042
sssg852
(dp1801
I0
(dp1802
g870
F67.99962178187624
ssssg320
(dp1803
(F728395.1640872674
F4630487.735427786
tp1804
g1298
s(F728420.1457844215
F4630601.2440257175
tp1805
(dp1806
I0
(dp1807
g870
F120.8725974915725
sssg396
(dp1808
I0
(dp1809
g870
F2212.787415000179
ssssg322
(dp1810
g842
(dp1811
I0
(dp1812
g870
F120.5126393195918
ssssg324
(dp1813
(F727325.207608375
F4630662.98927952
tp1814
(dp1815
I0
(dp1816
g870
F427.53377112624264
sssg444
(dp1817
I0
(dp1818
g870
F132.14361541262267
sssg526
(dp1819
I0
(dp1820
g870
F323.05892741822595
ssssg326
(dp1821
(F724658.7622777099
F4631959.699596804
tp1822
(dp1823
I0
(dp1824
g870
F316.7703958412953
sss(F724724.3757691045
F4631719.684537816
tp1825
g1619
ssg328
(dp1826
g504
(dp1827
I0
(dp1828
g870
F269.5679930537786
sssg196
g1452
s(F728962.0627664127
F4633112.457004273
tp1829
g1711
ssg330
(dp1830
g48
g1017
s(F725595.1891667515
F4632860.111522688
tp1831
(dp1832
I0
(dp1833
g870
F235.4945535446871
sss(F725196.0250819998
F4632239.951938543
tp1834
g1328
ssg332
(dp1835
(F728293.0408764548
F4632070.289103353
tp1836
g1764
s(F728508.6495154193
F4632086.862135807
tp1837
(dp1838
I0
(dp1839
g870
F17.576576033386516
sssg568
(dp1840
I0
(dp1841
g870
F195.41883177145183
ssI1
(dp1842
g870
F195.41883177145183
ssssg334
(dp1843
g608
(dp1844
I0
(dp1845
g870
F750.0106041685821
sssg666
(dp1846
I0
(dp1847
g870
F180.9779907517756
sssg630
(dp1848
I0
(dp1849
g870
F186.06615514651793
ssssg336
(dp1850
(F725901.1494469866
F4631511.312989577
tp1851
g1664
s(F726430.9409596003
F4631020.478873167
tp1852
(dp1853
I0
(dp1854
g870
F374.56826480099545
sss(F726615.5046853792
F4631541.522963035
tp1855
(dp1856
I0
(dp1857
g870
F414.8895780361163
ssssg338
(dp1858
(F727312.8464071109
F4632132.45915058
tp1859
(dp1860
I0
(dp1861
g870
F6.636910212736294
sss(F727317.9337515975
F4632126.184802818
tp1862
g1196
ssg340
(dp1863
(F724061.8961527605
F4631531.791965361
tp1864
g1718
s(F725203.4880003525
F4631068.113816458
tp1865
(dp1866
I0
(dp1867
g870
F318.0721305419551
sss(F726064.609339201
F4630086.872348658
tp1868
(dp1869
I0
(dp1870
g870
F1425.7895335123533
ssssg342
(dp1871
g424
(dp1872
I0
(dp1873
g870
F564.9434267410205
sssg224
g1523
s(F728962.0627664127
F4633112.457004273
tp1874
g1713
ssg344
(dp1875
g200
g1458
s(F725138.39745622
F4634012.530779428
tp1876
(dp1877
I0
(dp1878
g870
F148.57055685020825
ssssg346
(dp1879
g750
(dp1880
I0
(dp1881
g870
F110.96887708712794
sssg296
g1737
sg654
(dp1882
I0
(dp1883
g870
F72.3045446892282
ssssg348
(dp1884
g130
g1259
s(F725700.7304960729
F4633035.400425814
tp1885
g927
s(F725465.8074068476
F4632670.73294262
tp1886
g1832
ssg350
(dp1887
(F728771.3020417456
F4631541.400841073
tp1888
(dp1889
I0
(dp1890
g870
F68.01137556110709
sssg118
g1219
sg38
g982
ssg352
(dp1891
(F726379.8479708114
F4633754.2881173305
tp1892
(dp1893
I0
(dp1894
g870
F53.27838393665662
sss(F726609.7666895215
F4633980.782654444
tp1895
g1403
s(F726264.6108973448
F4633767.525428516
tp1896
(dp1897
I0
(dp1898
g870
F102.23057143755713
ssssg354
(dp1899
(F728225.8264014801
F4630677.0587361725
tp1900
(dp1901
I0
(dp1902
g870
F109.52114978494717
sssg756
(dp1903
I0
(dp1904
g870
F15.575138425447454
sss(F728416.0452431991
F4630716.378527694
tp1905
(dp1906
I0
(dp1907
g870
F85.80779278196538
ssssg356
(dp1908
(F726679.2320452142
F4632561.583108358
tp1909
(dp1910
I0
(dp1911
g870
F42.9972613338893
ssssg358
(dp1912
(F724592.4215080184
F4632483.424554699
tp1913
g1447
s(F724482.5949015499
F4632317.61162436
tp1914
(dp1915
I0
(dp1916
g870
F0.977858616527807
ssssg360
(dp1917
g738
(dp1918
I0
(dp1919
g870
F901.4814816352493
sss(F726475.6063899203
F4632539.998494855
tp1920
(dp1921
I0
(dp1922
g870
F1.979483813766951
ssssg362
(dp1923
g800
(dp1924
I0
(dp1925
g870
F102.3042044584722
sssg102
g1184
ssg364
(dp1926
(F727417.1031963971
F4632432.68001016
tp1927
(dp1928
I0
(dp1929
g870
F96.93890894674068
ssssg366
(dp1930
(F728483.130829698
F4631530.722516304
tp1931
(dp1932
I0
(dp1933
g870
F94.59735355725074
sss(F728424.570723455
F4631458.265295695
tp1934
(dp1935
I0
(dp1936
g870
F46.45309021502021
sss(F728375.4258034241
F4631507.378096166
tp1937
(dp1938
I0
(dp1939
g870
F28.78179990905529
ssssg368
(dp1940
(F727935.2773578016
F4632065.074309645
tp1941
(dp1942
I0
(dp1943
g870
F107.4336119808548
sss(F728040.7285173867
F4631943.606029236
tp1944
(dp1945
I0
(dp1946
g870
F53.42188817193409
ssssg370
(dp1947
(F727971.2397797378
F4631165.885940926
tp1948
g956
ssg372
(dp1949
g112
g1209
ssg374
(dp1950
(F726826.2756694907
F4631705.499430151
tp1951
g897
s(F726942.5518265516
F4631822.7938673105
tp1952
g1513
sg134
g1273
ssg376
(dp1953
g414
(dp1954
I0
(dp1955
g870
F185.9821522924277
sssg110
g1206
s(F727584.242760262
F4630991.029069324
tp1956
g1382
ssg378
(dp1957
(F727646.6108911191
F4631831.126577156
tp1958
g1083
s(F727744.8260648369
F4631599.042711487
tp1959
(dp1960
I0
(dp1961
g870
F17.944168540497206
ssssg380
(dp1962
(F727767.0900048219
F4632120.836734954
tp1963
(dp1964
I0
(dp1965
g870
F134.75958721414463
sss(F727716.8329913714
F4631974.877080146
tp1966
g1528
ssg382
(dp1967
(F728241.6771468419
F4630563.745069347
tp1968
g1536
s(F728286.7189687737
F4630520.835522417
tp1969
(dp1970
I0
(dp1971
g870
F19.10735364729851
sss(F728395.1640872674
F4630487.735427786
tp1972
g1301
ssg384
(dp1973
g248
g1584
ssg386
(dp1974
(F728420.1457844215
F4630601.2440257175
tp1975
(dp1976
I0
(dp1977
g870
F115.24737862864717
sss(F728334.3095166851
F4630692.088354165
tp1978
g1906
s(F728545.8465884556
F4630824.128591656
tp1979
(dp1980
I0
(dp1981
g870
F168.72234267001113
ssssg388
(dp1982
g318
g1799
ssg390
(dp1983
(F725026.6095814506
F4632188.034203262
tp1984
(dp1985
I0
(dp1986
g870
F275.73395015862627
sssg202
g1462
sg422
(dp1987
I0
(dp1988
g870
F83.3453891567753
ssssg392
(dp1989
g368
g1942
sg534
(dp1990
I0
(dp1991
g870
F113.72468836201985
sssg192
g1443
ssg394
(dp1992
(F728519.1505597022
F4632763.67901488
tp1993
g1159
ssg396
(dp1994
g320
g1808
ssg398
(dp1995
(F728330.4655250319
F4632480.753269472
tp1996
g1262
sg804
(dp1997
I0
(dp1998
g870
F74.30123630249818
ssssg400
(dp1999
g612
(dp2000
I0
(dp2001
g870
F382.8805886752892
ssssg402
(dp2002
g190
g1436
ssg404
(dp2003
g294
g1734
s(F728981.8130578371
F4631717.329459975
tp2004
g1225
s(F729068.5282015018
F4631863.279299082
tp2005
g1140
ssg406
(dp2006
g546
(dp2007
I0
(dp2008
g870
F620.3434361367575
ssssg408
(dp2009
g570
(dp2010
I0
(dp2011
g870
F169.50747111440128
ssssg410
(dp2012
(F728414.5658626399
F4631711.0409979075
tp2013
(dp2014
I0
(dp2015
g870
F46.73444494151742
sssg732
(dp2016
I0
(dp2017
g870
F122.41106109769056
sss(F728338.5800537178
F4631793.307605878
tp2018
g1560
ssg412
(dp2019
g538
(dp2020
I0
(dp2021
g870
F51.39822404893991
ssssg414
(dp2022
g30
g954
s(F727733.3421069515
F4631205.75222469
tp2023
(dp2024
I0
(dp2025
g870
F27.424048013162395
sssg376
g1954
ssg416
(dp2026
(F727696.4856245794
F4631555.373154681
tp2027
g1043
sg378
g1960
s(F727845.1239324356
F4631492.314807826
tp2028
g1646
ssg418
(dp2029
g238
g1563
s(F728959.3962362842
F4632213.690537725
tp2030
g1418
s(F728958.6109288177
F4632201.883009868
tp2031
(dp2032
I0
(dp2033
g870
F16.9106774865872
ssssg420
(dp2034
(F727446.074310411
F4632118.565068769
tp2035
(dp2036
I0
(dp2037
g870
F287.40876578408637
ssssg422
(dp2038
g390
g1987
ssg424
(dp2039
(F728307.6604702758
F4633364.582260795
tp2040
g1872
ssg426
(dp2041
g618
(dp2042
I0
(dp2043
g870
F294.06315264681893
ssI1
(dp2044
g870
F277.41141641771486
sss(F729675.0710133899
F4633518.312213309
tp2045
(dp2046
I0
(dp2047
g870
F475.9660004174462
ssssg428
(dp2048
g50
g1022
s(F727534.0742046055
F4632465.283567255
tp2049
g1188
s(F727518.1855974125
F4632235.71803905
tp2050
g1725
s(F727704.5252371902
F4632283.2342211725
tp2051
(dp2052
I0
(dp2053
g870
F45.97104322489327
ssssg430
(dp2054
g854
(dp2055
I0
(dp2056
g870
F585.0005075961708
sssg746
(dp2057
I0
(dp2058
g870
F112.75597756526543
sss(F727995.8607604454
F4633148.640090804
tp2059
(dp2060
I0
(dp2061
g870
F139.64713487243986
ssssg432
(dp2062
(F727979.2314122722
F4632802.644758684
tp2063
(dp2064
I0
(dp2065
g870
F68.17111847956153
sssg122
g1233
ssg434
(dp2066
(F727767.0900048219
F4632120.836734954
tp2067
(dp2068
I0
(dp2069
g870
F49.95806037922419
ssssg436
(dp2070
(F728457.883212416
F4632511.287469881
tp2071
(dp2072
I0
(dp2073
g870
F111.60171580322933
sssg638
(dp2074
I0
(dp2075
g870
F148.83072804853762
sss(F728570.550418529
F4632446.75961431
tp2076
(dp2077
I0
(dp2078
g870
F56.647296717224556
ssssg438
(dp2079
g222
g1517
sg664
(dp2080
I0
(dp2081
g870
F383.92276968265077
ssssg440
(dp2082
(F728239.1895828937
F4631416.542017237
tp2083
(dp2084
I0
(dp2085
g870
F180.81702401936545
ssssg442
(dp2086
(F727979.2314122722
F4632802.644758684
tp2087
(dp2088
I0
(dp2089
g870
F147.29371377166638
sssg308
g1772
s(F727898.4326808064
F4632929.333516858
tp2090
(dp2091
I0
(dp2092
g870
F20.79243025633362
ssssg444
(dp2093
(F727078.7592654369
F4630895.453916756
tp2094
g1817
ssg446
(dp2095
g474
(dp2096
I0
(dp2097
g870
F163.74217849885392
sss(F728398.3156278314
F4631491.2154450845
tp2098
g1938
s(F728318.3565299821
F4631624.819116834
tp2099
g1313
ssg448
(dp2100
g736
(dp2101
I0
(dp2102
g870
F306.62155553628503
ssssg450
(dp2103
(F727919.1128365126
F4632237.845133024
tp2104
(dp2105
I0
(dp2106
g870
F95.88660565095421
ssssg452
(dp2107
(F726360.1517642636
F4633803.792113558
tp2108
g1897
sg572
(dp2109
I0
(dp2110
g870
F399.85855861679136
sss(F726213.9693830318
F4633749.468231625
tp2111
g923
ssg454
(dp2112
g470
(dp2113
I0
(dp2114
g870
F43.5666225616994
ssssg456
(dp2115
g768
(dp2116
I0
(dp2117
g870
F155.8819585596576
ssssg458
(dp2118
(F728423.6760749947
F4630480.533640647
tp2119
g1806
sg240
g1570
sg386
g1976
ssg460
(dp2120
g292
g1727
s(F727189.6187861799
F4632034.731895083
tp2121
(dp2122
I0
(dp2123
g870
F157.5836482218847
ssssg462
(dp2124
(F727884.8839327868
F4632913.561497866
tp2125
g2088
sg432
g2064
s(F728101.5996920384
F4632907.7064794125
tp2126
(dp2127
I0
(dp2128
g870
F161.88784097891147
ssssg464
(dp2129
g198
g1455
s(F726609.7666895215
F4633980.782654444
tp2130
g1400
ssg466
(dp2131
(F727995.8607604454
F4633148.640090804
tp2132
(dp2133
I0
(dp2134
g870
F107.30937391207333
sssg204
g1469
s(F727922.941355062
F4633013.259133458
tp2135
(dp2136
I0
(dp2137
g870
F109.27149091599276
ssssg468
(dp2138
(F728519.1505597022
F4632763.67901488
tp2139
g1157
ssg470
(dp2140
g454
g2113
s(F727740.3719835463
F4631264.331597562
tp2141
g1669
s(F727733.3421069515
F4631205.75222469
tp2142
(dp2143
I0
(dp2144
g870
F27.84930937930062
ssssg472
(dp2145
g810
(dp2146
I0
(dp2147
g870
F9.508605634992621
sssg628
(dp2148
I0
(dp2149
g870
F220.45415770596034
sssg588
(dp2150
I0
(dp2151
g870
F138.63122818577844
ssssg474
(dp2152
g266
g1637
sg446
g2096
sg440
g2084
ssg476
(dp2153
(F728028.8800985152
F4631668.137400657
tp2154
(dp2155
I0
(dp2156
g870
F0.742875911304078
ssssg478
(dp2157
g182
g1409
ssg480
(dp2158
g128
g1251
ssg482
(dp2159
(F728011.8029704535
F4632132.210679294
tp2160
(dp2161
I0
(dp2162
g870
F12.49347233942123
sss(F728061.8809991396
F4632175.56186292
tp2163
(dp2164
I0
(dp2165
g870
F53.76749291808447
ssssg484
(dp2166
(F728682.2089037469
F4630633.533536969
tp2167
(dp2168
I0
(dp2169
g870
F78.99815006742273
sss(F728618.7167365394
F4630881.038737223
tp2170
(dp2171
I0
(dp2172
g870
F202.67208067005194
ssssg486
(dp2173
(F729385.4503112381
F4631206.868969908
tp2174
(dp2175
I0
(dp2176
g870
F239.41627744066915
sss(F729185.2926239066
F4631350.607051305
tp2177
(dp2178
I0
(dp2179
g870
F34.54981539298393
sssg714
(dp2180
I0
(dp2181
g870
F21.284978738263593
sss(F729209.4409303941
F4631375.614266914
tp2182
g1100
ssg488
(dp2183
g782
(dp2184
I0
(dp2185
g870
F155.0219035598331
sss(F726343.2995946307
F4633318.41485946
tp2186
g1286
sg20
g920
ssg490
(dp2187
g250
g1593
ssg492
(dp2188
(F728021.4737335377
F4632140.120369077
tp2189
g2164
sg234
g1554
ssg494
(dp2190
(F730136.9798474425
F4633015.108355239
tp2191
(dp2192
I0
(dp2193
g870
F719.7667421209773
sssg554
(dp2194
I0
(dp2195
g870
F259.955630202804
sssg640
(dp2196
I0
(dp2197
g870
F1071.5961908721254
ssssg496
(dp2198
g108
g1199
ssg498
(dp2199
g12
g888
sg776
(dp2200
I0
(dp2201
g870
F62.43793103059264
sss(F729512.0593959909
F4631340.768176898
tp2202
g1701
ssg500
(dp2203
(F728094.3459866289
F4632708.5489696525
tp2204
g1236
s(F728240.6765748361
F4632726.974268271
tp2205
g1108
ssg502
(dp2206
(F728959.3962362842
F4632213.690537725
tp2207
g1421
s(F728971.5680986852
F4632212.747349851
tp2208
g2032
sg300
g1751
ssg504
(dp2209
g586
(dp2210
I0
(dp2211
g870
F530.1089670010635
sss(F729017.7362828713
F4633170.599774526
tp2212
g1827
sg788
(dp2213
I0
(dp2214
g870
F108.04025944467759
ssssg506
(dp2215
g642
(dp2216
I0
(dp2217
g870
F256.04926996598215
sssg694
(dp2218
I0
(dp2219
g870
F381.8738058312444
sssg484
g2168
ssg508
(dp2220
(F728421.5210681092
F4631875.659405485
tp2221
(dp2222
I0
(dp2223
g870
F171.31622991577845
sss(F728633.538580009
F4631908.460396009
tp2224
(dp2225
I0
(dp2226
g870
F110.79581477298028
sss(F728508.6495154193
F4632086.862135807
tp2227
(dp2228
I0
(dp2229
g870
F112.16089096709344
ssssg510
(dp2230
(F729109.5490611134
F4631523.353480334
tp2231
(dp2232
I0
(dp2233
g870
F75.39020671360613
sss(F728991.7593916691
F4631573.259732309
tp2234
(dp2235
I0
(dp2236
g870
F80.20442481771173
sss(F728981.8130578371
F4631717.329459975
tp2237
g1222
ssg512
(dp2238
(F727387.2552190276
F4632816.10957179
tp2239
g1519
ssg514
(dp2240
(F728873.1673577781
F4631881.574673017
tp2241
(dp2242
I0
(dp2243
g870
F118.72716426140236
sss(F728797.099659346
F4631787.321910296
tp2244
(dp2245
I0
(dp2246
g870
F65.50593048390303
sssg532
(dp2247
I0
(dp2248
g870
F145.76339440169323
ssssg516
(dp2249
g178
g1388
ssg518
(dp2250
g798
(dp2251
I0
(dp2252
g870
F23.553838643052174
sss(F728384.4201326583
F4632590.299336023
tp2253
g1690
ssg520
(dp2254
(F727421.0344274084
F4631461.446023394
tp2255
g1574
s(F727548.1902871036
F4631315.666566696
tp2256
(dp2257
I0
(dp2258
g870
F198.6879734965975
sss(F727248.7865143036
F4631529.540895255
tp2259
g1128
ssg522
(dp2260
g88
g1138
ssg524
(dp2261
(F728418.4471356437
F4631714.499849313
tp2262
g1165
sg606
(dp2263
I0
(dp2264
g870
F445.9802438557336
sssg366
g1932
ssg526
(dp2265
g760
(dp2266
I0
(dp2267
g870
F413.9890018796726
sssg324
g1819
sg560
(dp2268
I0
(dp2269
g870
F282.047506328919
ssssg528
(dp2270
(F727997.2381720252
F4630648.856320788
tp2271
g1541
s(F728225.8264014801
F4630677.0587361725
tp2272
(dp2273
I0
(dp2274
g870
F164.0597691205256
sssg542
(dp2275
I0
(dp2276
g870
F52.466420553437416
ssssg530
(dp2277
(F727888.2274373128
F4633579.14146503
tp2278
(dp2279
I0
(dp2280
g870
F279.763752367186
ssssg532
(dp2281
g270
g1651
s(F728553.4999198893
F4631984.814922466
tp2282
g2225
sg514
g2247
ssg534
(dp2283
g392
g1990
ssg536
(dp2284
(F725284.9268239368
F4634019.048840103
tp2285
g1877
s(F724963.391528518
F4634473.725525812
tp2286
(dp2287
I0
(dp2288
g870
F517.6730750919688
sss(F725016.95398938
F4633961.902813891
tp2289
(dp2290
I0
(dp2291
g870
F134.9772303865589
ssssg538
(dp2292
g596
(dp2293
I0
(dp2294
g870
F130.11611629538095
sssg412
g2020
sg256
g1607
ssg540
(dp2295
(F727741.0498387511
F4631180.544297418
tp2296
g2024
sg162
g1345
s(F727729.9990457414
F4631232.32212005
tp2297
g2143
ssg542
(dp2298
(F728063.0301295612
F4630656.738218881
tp2299
g2275
ssg544
(dp2300
(F727584.242760262
F4630991.029069324
tp2301
g1379
ssg546
(dp2302
g406
g2007
s(F726446.4651989109
F4632588.313339565
tp2303
g1503
s(F726476.7471558268
F4632538.380777539
tp2304
g1921
ssg548
(dp2305
g610
(dp2306
I0
(dp2307
g870
F34.81611346434967
ssssg550
(dp2308
(F728797.099659346
F4631787.321910296
tp2309
(dp2310
I0
(dp2311
g870
F86.25666905928159
ssssg552
(dp2312
g170
g1365
sg636
(dp2313
I0
(dp2314
g870
F109.6662119272924
sssg844
(dp2315
I0
(dp2316
g870
F26.42376407280753
ssssg554
(dp2317
(F729178.9132283742
F4631991.98381625
tp2318
g1566
s(F729567.6577481428
F4632631.839216878
tp2319
g2194
ssg556
(dp2320
(F728005.7003876327
F4631983.94122803
tp2321
g1945
s(F728067.4618237446
F4631912.90784649
tp2322
g1660
ssg558
(dp2323
(F724622.006754156
F4632139.27079971
tp2324
(dp2325
I0
(dp2326
g870
F192.26554441284077
sss(F724547.4795654535
F4632303.648269719
tp2327
g1797
ssg560
(dp2328
(F727373.152007082
F4631027.427565214
tp2329
g2268
ssg562
(dp2330
(F725491.5438263947
F4633439.92869529
tp2331
(dp2332
I0
(dp2333
g870
F100.1113098612589
sssg830
(dp2334
I0
(dp2335
g870
F561.195295431203
sss(F725216.4680115121
F4633309.526479635
tp2336
g1412
ssg564
(dp2337
(F728944.9686424374
F4631152.263791159
tp2338
g1760
s(F728664.8643691958
F4630917.863927344
tp2339
(dp2340
I0
(dp2341
g870
F135.6514122480724
sss(F728544.9608314405
F4631298.502488052
tp2342
g1790
ssg566
(dp2343
(F728203.1606626901
F4632359.313082784
tp2344
(dp2345
I0
(dp2346
g870
F29.977058124273615
sssg720
(dp2347
I0
(dp2348
g870
F21.389711332953333
ssssg568
(dp2349
(F728704.1888070406
F4632140.5905886125
tp2350
(dp2351
I0
(dp2352
g870
F45.02078124309679
sssg332
g1840
s(F728615.4323211496
F4632279.959894167
tp2353
(dp2354
I0
(dp2355
g870
F120.21775326752115
ssssg570
(dp2356
g408
g2010
ssg572
(dp2357
(F726318.2611754737
F4633358.07927658
tp2358
(dp2359
I0
(dp2360
g870
F37.07962072210978
sssg452
g2109
s(F726492.2061906102
F4633467.861842199
tp2361
(dp2362
I0
(dp2363
g870
F544.3138619505108
ssssg574
(dp2364
(F727317.0263632541
F4632127.303906278
tp2365
g1860
s(F727417.1031963971
F4632432.68001016
tp2366
(dp2367
I0
(dp2368
g870
F384.38349884816023
ssssg576
(dp2369
g730
(dp2370
I0
(dp2371
g870
F310.261559853409
sss(F727685.0132996463
F4631526.552047027
tp2372
g1357
ssg578
(dp2373
g304
g1757
s(F729185.2926239066
F4631350.607051305
tp2374
(dp2375
I0
(dp2376
g870
F124.93368161002431
ssssg580
(dp2377
g158
g1331
ssg582
(dp2378
(F727094.3836619088
F4631604.098665779
tp2379
g1271
ssg584
(dp2380
g10
g879
s(F728065.3691980868
F4631538.699011285
tp2381
g1642
s(F727981.5276203982
F4631518.124125179
tp2382
g1631
ssg586
(dp2383
(F730136.9798474425
F4633015.108355239
tp2384
(dp2385
I0
(dp2386
g870
F715.3970814495593
sss(F729233.8966447223
F4633463.878577556
tp2387
(dp2388
I0
(dp2389
g870
F455.7273608463329
sss(F729776.5617357248
F4633754.1184659675
tp2390
g2046
s(F729201.2805355573
F4633363.680350743
tp2391
g2210
ssg588
(dp2392
g124
g1244
sg262
g1622
sg472
g2150
ssg590
(dp2393
g620
(dp2394
I0
(dp2395
g870
F161.01451714498165
ssI1
(dp2396
g870
F161.01451714498165
sssg508
g2222
sg236
g1557
ssg592
(dp2397
(F728171.306125866
F4631794.180820483
tp2398
g1077
ssg594
(dp2399
(F728171.306125866
F4631794.180820483
tp2400
g1079
s(F728081.5337174463
F4631896.7946159765
tp2401
g1180
ssg596
(dp2402
g340
g1866
s(F725154.5352186314
F4631188.277934591
tp2403
g2293
s(F725765.3345228384
F4631474.669762542
tp2404
g967
ssg598
(dp2405
(F723473.1595553795
F4632931.465369329
tp2406
(dp2407
I0
(dp2408
g870
F845.0442657715533
ssssg600
(dp2409
(F726527.3596068854
F4634080.756968588
tp2410
(dp2411
I0
(dp2412
g870
F246.03850027989094
sssg180
g1397
ssg602
(dp2413
(F728604.7917315748
F4632296.270615568
tp2414
(dp2415
I0
(dp2416
g870
F19.474644518574394
sss(F728680.2630826856
F4632178.727404295
tp2417
g2354
ssg604
(dp2418
g8
g872
sg160
g1336
s(F726287.580718046
F4632786.78882651
tp2419
(dp2420
I0
(dp2421
g870
F147.0140505066487
ssssg606
(dp2422
g524
g2263
sg836
(dp2423
I0
(dp2424
g870
F87.41969957141669
sss(F728801.7843468464
F4631599.733513711
tp2425
g1889
ssg608
(dp2426
g246
g1581
s(F726602.2264399002
F4630974.897184673
tp2427
g1844
sg682
(dp2428
I0
(dp2429
g870
F395.4556538459081
ssssg610
(dp2430
g548
g2306
ssg612
(dp2431
g400
g2000
ssg614
(dp2432
g832
(dp2433
I0
(dp2434
g870
F489.3933842701011
ssI1
(dp2435
g870
F60.46920080835742
sssg742
(dp2436
I0
(dp2437
g870
F28.80012199361097
ssssg616
(dp2438
(F729017.1058609276
F4632973.471231069
tp2439
g1309
s(F728654.9685924951
F4632506.04231694
tp2440
g1253
ssg618
(dp2441
(F729531.8438617149
F4633935.644825345
tp2442
(dp2443
I0
(dp2444
g870
F36.930223586555506
sssg426
g2042
ssg620
(dp2445
(F728421.5210681092
F4631875.659405485
tp2446
g2394
sg306
g1767
sg740
(dp2447
I0
(dp2448
g870
F230.54586826601115
ssssg622
(dp2449
g716
(dp2450
I0
(dp2451
g870
F268.4599865516286
ssssg624
(dp2452
(F728034.1653009783
F4633079.282497208
tp2453
g1679
sg662
(dp2454
I0
(dp2455
g870
F1.13594783257934
ssI1
(dp2456
g870
F1.13594783257934
ssssg626
(dp2457
g712
(dp2458
I0
(dp2459
g870
F181.6839237531858
ssI1
(dp2460
g870
F144.16435909380274
ssssg628
(dp2461
g558
g2325
s(F724698.2345369158
F4632116.11664999
tp2462
g1465
s(F724650.5087041763
F4631952.437302046
tp2463
g2148
ssg630
(dp2464
(F726602.2264399002
F4630974.897184673
tp2465
g1848
ssg632
(dp2466
(F727898.4326808064
F4632929.333516858
tp2467
(dp2468
I0
(dp2469
g870
F21.039366677155822
sssg808
(dp2470
I0
(dp2471
g870
F69.06461970348806
ssI1
(dp2472
g870
F266.4957956592501
ssssg634
(dp2473
g184
g1415
s(F728790.5880432061
F4632008.531362715
tp2474
g1746
s(F728680.2630826856
F4632178.727404295
tp2475
g2351
ssg636
(dp2476
(F726636.1027871186
F4632741.278449635
tp2477
g2313
ssg638
(dp2478
g602
g2415
s(F728521.0369477848
F4632419.27447721
tp2479
g2074
ssg640
(dp2480
(F728654.9685924951
F4632506.04231694
tp2481
g1256
s(F728521.0369477848
F4632419.27447721
tp2482
g2077
sg494
g2196
ssg642
(dp2483
g506
g2216
ssg644
(dp2484
g692
(dp2485
I0
(dp2486
g870
F165.99759623970033
ssssg646
(dp2487
(F726569.0803057437
F4632686.352230362
tp2488
g1600
sg356
g1910
sg168
g1361
ssg648
(dp2489
(F725396.8752380656
F4633407.369826292
tp2490
g2332
sg66
g1065
sg660
(dp2491
I0
(dp2492
g870
F572.7866602517541
ssssg650
(dp2493
g26
g943
sg838
(dp2494
I0
(dp2495
g870
F63.62227331988788
ssssg652
(dp2496
g132
g1268
s(F727756.4573303794
F4632591.895823977
tp2497
g1013
s(F727802.978240897
F4632351.179509729
tp2498
(dp2499
I0
(dp2500
g870
F115.22310173456604
ssssg654
(dp2501
(F728955.7979321535
F4631955.2532279305
tp2502
g1882
ssg656
(dp2503
g232
g1547
ssg658
(dp2504
(F728664.8643691958
F4630917.863927344
tp2505
(dp2506
I0
(dp2507
g870
F59.04021964203022
sss(F728545.8465884556
F4630824.128591656
tp2508
(dp2509
I0
(dp2510
g870
F92.46019825164495
sss(F728684.9569593335
F4630711.317789298
tp2511
g2171
ssg660
(dp2512
(F726042.5418736974
F4633688.900763541
tp2513
g949
s(F725491.5438263947
F4633439.92869529
tp2514
g2491
s(F725977.0630058948
F4633514.992326622
tp2515
(dp2516
I0
(dp2517
g870
F166.3457819479438
ssssg662
(dp2518
g462
g2127
s(F728240.0166194064
F4632727.677658365
tp2519
(dp2520
I0
(dp2521
g870
F228.22913150459448
sssg624
g2454
ssg664
(dp2522
(F727111.9404279696
F4633104.880091403
tp2523
g1321
sg438
g2080
ssg666
(dp2524
g334
g1846
sg336
g1853
sg772
(dp2525
I0
(dp2526
g870
F1057.5046147692924
ssssg668
(dp2527
(F728241.6771468419
F4630563.745069347
tp2528
g1531
ssg670
(dp2529
(F728618.7167365394
F4630881.038737223
tp2530
g2506
sg856
(dp2531
I0
(dp2532
g870
F373.3173996763807
sss(F728770.6890004126
F4631002.730883477
tp2533
g2340
ssg672
(dp2534
(F724061.8961527605
F4631531.791965361
tp2535
g1721
s(F725081.9102351557
F4633866.252217513
tp2536
(dp2537
I0
(dp2538
g870
F1926.0242193665665
sssg598
g2407
ssg674
(dp2539
(F727565.2380166536
F4631605.206145283
tp2540
g1475
sg786
(dp2541
I0
(dp2542
g870
F41.45615087418398
ssI1
(dp2543
g870
F41.45615087418398
sssg276
g1675
ssg676
(dp2544
(F729088.1758663505
F4631272.015041489
tp2545
g2375
s(F729212.6435106986
F4631371.715589921
tp2546
g2178
sg80
g1111
ssg678
(dp2547
g302
g1754
s(F724663.5897541778
F4632590.623597024
tp2548
g910
s(F725216.4680115121
F4633309.526479635
tp2549
g1407
ssg680
(dp2550
(F727921.2775405501
F4633257.853791843
tp2551
g2060
sg42
g996
s(F727893.8094297142
F4633118.257010953
tp2552
g2133
ssg682
(dp2553
(F727094.3836619088
F4631604.098665779
tp2554
g1276
s(F727217.378053271
F4631189.082831979
tp2555
g2428
s(F727248.7865143036
F4631529.540895255
tp2556
g1125
ssg684
(dp2557
g754
(dp2558
I0
(dp2559
g870
F163.52507078252015
ssssg686
(dp2560
g146
g1304
s(F729640.5023638355
F4630722.212854114
tp2561
(dp2562
I0
(dp2563
g870
F32.532635046529585
sssg814
(dp2564
I0
(dp2565
g870
F3.418895989036023
ssssg688
(dp2566
g442
g2091
sg260
g1615
s(F727911.9707224206
F4632945.438683092
tp2567
g2468
ssg690
(dp2568
g62
g1055
sg536
g2287
sg822
(dp2569
I0
(dp2570
g870
F2166.3638121184804
ssssg692
(dp2571
g748
(dp2572
I0
(dp2573
g870
F2.322600331049634
sssg644
g2485
s(F726169.1880161108
F4632872.843706683
tp2574
g2420
ssg694
(dp2575
(F728682.2089037469
F4630633.533536969
tp2576
g2218
ssg696
(dp2577
(F726345.6542054281
F4633383.068515438
tp2578
g2362
s(F726400.389735997
F4633667.686420177
tp2579
(dp2580
I0
(dp2581
g870
F238.3437089765277
ssI1
(dp2582
g870
F238.97858761672035
ssssg698
(dp2583
g420
g2036
s(F727677.4214841509
F4632217.900641248
tp2584
g1025
sg36
g979
ssg700
(dp2585
(F728991.7593916691
F4631573.259732309
tp2586
(dp2587
I0
(dp2588
g870
F124.82811545991382
sssg510
g2235
ssg702
(dp2589
(F724658.3619571324
F4631960.584465782
tp2590
g1587
sg218
g1506
s(F724724.3757691045
F4631719.684537816
tp2591
g1625
ssg704
(dp2592
(F728101.5996920384
F4632907.7064794125
tp2593
g2520
sg78
g1103
ssg706
(dp2594
(F729564.8837038452
F4633919.146030051
tp2595
g2443
sg286
g1704
ssg708
(dp2596
g154
g1324
s(F726685.8531262018
F4631599.444357995
tp2597
g1545
s(F726251.9408204223
F4631348.80979479
tp2598
g1856
ssg710
(dp2599
g252
g1598
sg216
g1500
sg208
g1481
ssg712
(dp2600
(F727451.0649473364
F4631651.695364726
tp2601
g1432
sg626
g2458
ssg714
(dp2602
g486
g2180
ssg716
(dp2603
g622
g2450
s(F725721.7056098223
F4633105.644505014
tp2604
g1068
sg724
(dp2605
I0
(dp2606
g870
F2.584660104195326
ssssg718
(dp2607
g326
g1823
s(F724657.6473082518
F4631958.7185370345
tp2608
(dp2609
I0
(dp2610
g870
F1.485138095645006
ssssg720
(dp2611
g40
g990
s(F728179.1365034595
F4632341.697314924
tp2612
g2347
ssg722
(dp2613
g284
g1698
ssg724
(dp2614
(F726008.4390609307
F4633676.260054162
tp2615
g2516
s(F725976.7996902687
F4633512.421114313
tp2616
g2605
ssg726
(dp2617
g774
(dp2618
I0
(dp2619
g870
F224.81303598654986
ssssg728
(dp2620
(F728873.1673577781
F4631881.574673017
tp2621
(dp2622
I0
(dp2623
g870
F87.6458360535802
sss(F728790.5880432061
F4632008.531362715
tp2624
g1749
ssg730
(dp2625
g44
g1003
s(F727740.3719835463
F4631264.331597562
tp2626
g1672
sg576
g2370
ssg732
(dp2627
g410
g2016
ssg734
(dp2628
g96
g1167
s(F728381.087111431
F4631743.648752601
tp2629
g2014
sg150
g1316
ssg736
(dp2630
(F725961.3840906238
F4632945.21803242
tp2631
g868
s(F725700.7304960729
F4633035.400425814
tp2632
g933
sg448
g2101
ssg738
(dp2633
(F726942.5518265516
F4631822.7938673105
tp2634
g1510
s(F727317.9427992324
F4632126.191697331
tp2635
g2122
sg360
g1918
sg84
g1122
ssg740
(dp2636
(F728501.9754338262
F4632103.099080149
tp2637
g1838
s(F728321.7955507009
F4632000.738142483
tp2638
g2447
s(F728553.4999198893
F4631984.814922466
tp2639
g2228
ssg742
(dp2640
g696
g2580
s(F726396.8222934516
F4633696.250227833
tp2641
g2436
ssg744
(dp2642
g140
g1288
ssg746
(dp2643
(F726997.941714454
F4634229.313977048
tp2644
(dp2645
I0
(dp2646
g870
F1240.3545372046613
sss(F727921.2775405501
F4633257.853791843
tp2647
g2057
s(F727955.6112231173
F4633297.076681268
tp2648
g1489
ssg748
(dp2649
(F726287.580718046
F4632786.78882651
tp2650
g2572
s(F726446.4651989109
F4632588.313339565
tp2651
g1498
ssg750
(dp2652
(F728955.7979321535
F4631955.2532279305
tp2653
g1880
s(F728900.1131181453
F4631841.280856979
tp2654
g1731
s(F728762.6295774302
F4631843.016164692
tp2655
g2242
sg728
g2622
ssg752
(dp2656
(F728762.6295774302
F4631843.016164692
tp2657
g2245
s(F728723.2615229886
F4631722.04153178
tp2658
g984
sg550
g2310
ssg754
(dp2659
g790
(dp2660
I0
(dp2661
g870
F115.34769943390499
sssg382
g1970
sg684
g2558
ssg756
(dp2662
g354
g1903
ssg758
(dp2663
g848
(dp2664
I0
(dp2665
g870
F44.82054535505582
ssssg760
(dp2666
(F727373.152007082
F4631027.427565214
tp2667
g2266
s(F727078.7592654369
F4630895.453916756
tp2668
g1815
sg86
g1132
ssg762
(dp2669
g186
g1424
s(F729567.6577481428
F4632631.839216878
tp2670
g2192
s(F729675.0710133899
F4633518.312213309
tp2671
g2385
ssg764
(dp2672
(F728398.3156278314
F4631491.2154450845
tp2673
g1935
s(F728544.9608314405
F4631298.502488052
tp2674
g1785
s(F728454.9539764317
F4631221.036567812
tp2675
(dp2676
I0
(dp2677
g870
F246.30540302734727
ssssg766
(dp2678
g802
(dp2679
I0
(dp2680
g870
F101.48654701819399
sssg16
g904
ssg768
(dp2681
g456
g2116
sg528
g2273
s(F728334.3095166851
F4630692.088354165
tp2682
g1901
ssg770
(dp2683
(F727677.4214841509
F4632217.900641248
tp2684
g1020
sg434
g2068
s(F727732.5353298677
F4631991.826355495
tp2685
g1964
ssg772
(dp2686
(F726307.4487018035
F4629660.857193117
tp2687
g1391
s(F724941.6666924856
F4630933.590732058
tp2688
g1869
s(F726430.9409596003
F4631020.478873167
tp2689
g2525
ssg774
(dp2690
g364
g1928
sg104
g1191
sg574
g2367
sg726
g2618
ssg776
(dp2691
(F729212.6435106986
F4631371.715589921
tp2692
g2175
s(F729600.7494761918
F4631014.159328508
tp2693
g1089
s(F729429.954683168
F4631250.64945156
tp2694
g2200
s(F729640.5023638355
F4630722.212854114
tp2695
(dp2696
I0
(dp2697
g870
F547.9389338172034
ssssg778
(dp2698
g94
g1155
sg280
g1685
sg288
g1708
ssg780
(dp2699
(F728160.1627588937
F4632311.905502785
tp2700
g987
s(F728114.3337081606
F4632220.137771262
tp2701
g1552
ssg782
(dp2702
(F726343.2995946307
F4633318.41485946
tp2703
g1283
s(F726345.6542054281
F4633383.068515438
tp2704
g2359
sg488
g2184
ssg784
(dp2705
(F726586.181130031
F4632700.344775771
tp2706
g1371
ssg786
(dp2707
(F727585.9082326686
F4631340.433692854
tp2708
g1342
s(F727565.5289352797
F4631382.243923443
tp2709
g2541
ssg788
(dp2710
(F729675.0710133899
F4633518.312213309
tp2711
g2388
s(F729201.2805355573
F4633363.680350743
tp2712
g2213
ssg790
(dp2713
(F728286.7189687737
F4630520.835522417
tp2714
g2660
ssg792
(dp2715
(F728065.3691980868
F4631538.699011285
tp2716
g1640
sg476
g2155
s(F728029.4367409265
F4631668.629349683
tp2717
g1591
sg264
g1628
ssg794
(dp2718
(F727585.9082326686
F4631340.433692854
tp2719
g1339
s(F727560.5284006596
F4631189.56876712
tp2720
g1203
s(F727404.8688828783
F4631444.14685402
tp2721
g2257
ssg796
(dp2722
(F728457.883212416
F4632511.287469881
tp2723
(dp2724
I0
(dp2725
g870
F80.90212024484524
sss(F728330.4655250319
F4632480.753269472
tp2726
g1265
ssg798
(dp2727
g518
g2251
sg436
g2072
sg796
g2724
ssg800
(dp2728
g362
g1924
ssg802
(dp2729
g826
(dp2730
I0
(dp2731
g870
F140.58734019823893
sssg766
g2679
sg450
g2105
ssg804
(dp2732
g566
g2345
s(F728271.3171141271
F4632387.093135622
tp2733
g1997
ssg806
(dp2734
g254
g1603
sg658
g2509
s(F728416.0452431991
F4630716.378527694
tp2735
g1980
ssg808
(dp2736
g466
g2136
sg632
g2470
ssg810
(dp2737
g718
g2609
s(F724650.5087041763
F4631952.437302046
tp2738
g2146
ssg812
(dp2739
(F727661.461909629
F4632267.187655033
tp2740
g2052
s(F727730.9223290035
F4632297.74862613
tp2741
g1778
s(F727736.487501654
F4632446.426251695
tp2742
g1740
ssg814
(dp2743
(F729656.7098364823
F4630694.167646158
tp2744
g2564
ssg816
(dp2745
g32
g964
ssg818
(dp2746
(F729385.4503112381
F4631206.868969908
tp2747
g2696
s(F729656.7098364823
F4630694.167646158
tp2748
g2562
sg74
g1093
ssg820
(dp2749
(F727756.4573303794
F4632591.895823977
tp2750
g1009
ssg822
(dp2751
(F727882.0055880835
F4633362.749923751
tp2752
g2645
s(F724963.391528518
F4634473.725525812
tp2753
g2569
ssg824
(dp2754
g278
g1682
ssg826
(dp2755
g482
g2161
s(F727919.1128365126
F4632237.845133024
tp2756
g2730
s(F728006.1047585672
F4632127.180763112
tp2757
g1440
ssg828
(dp2758
(F726615.6810014477
F4632724.51262158
tp2759
(dp2760
I0
(dp2761
g870
F93.48526049546294
ssssg830
(dp2762
g562
g2334
sg672
g2537
s(F725016.95398938
F4633961.902813891
tp2763
(dp2764
I0
(dp2765
g870
F116.04494243408925
ssssg832
(dp2766
g352
g1893
sg614
g2433
ssg834
(dp2767
(F729120.5688592804
F4631506.558666509
tp2768
g1350
sg52
g1028
s(F729068.1863047086
F4631586.383659422
tp2769
g2232
ssg836
(dp2770
(F728687.3436717491
F4631545.2675764905
tp2771
(dp2772
I0
(dp2773
g870
F122.81535445267579
sss(F728771.3020417456
F4631541.400841073
tp2774
g2423
ssg838
(dp2775
(F727774.2296124296
F4632248.659069085
tp2776
g2494
ssg840
(dp2777
(F727730.9223290035
F4632297.74862613
tp2778
g1782
s(F727736.487501654
F4632446.426251695
tp2779
g1742
s(F727904.188254968
F4632405.653728924
tp2780
g2499
ssg842
(dp2781
(F724761.252566339
F4632116.869504925
tp2782
g1985
sg322
g1811
sg282
g1694
ssg844
(dp2783
g552
g2315
sg172
g1374
sg828
g2760
ssg846
(dp2784
g272
g1658
s(F728081.5337174463
F4631896.7946159765
tp2785
g1173
ssg848
(dp2786
(F728579.9923637034
F4631860.566779728
tp2787
g1654
s(F728481.1384234718
F4631771.503874317
tp2788
g1612
sg758
g2664
ssg850
(dp2789
g228
g1533
ssg852
(dp2790
g358
g1915
sg24
g940
s(F724547.4795654535
F4632303.648269719
tp2791
g1801
ssg854
(dp2792
g430
g2055
ssg856
(dp2793
g670
g2531
sg314
g1788
s(F728424.570723455
F4631458.265295695
tp2794
g2676
ssg858
(dp2795
(F724640.1448509705
F4634514.438614936
tp2796
g1057
s(F725081.9102351557
F4633866.252217513
tp2797
g2764
s(F725138.39745622
F4634012.530779428
tp2798
g2290
ssg860
(dp2799
g120
g1229
sg214
g1494
sg530
g2279
sssS'adj'
p2800
g865
sb.