ccopy_reg
_reconstructor
p0
(cnetworkx.classes.multigraph
MultiGraph
p1
c__builtin__
object
p2
Ntp3
Rp4
(dp5
S'node'
p6
(dp7
(F725961.3840906238
F4632945.21803242
tp8
(dp9
s(F728022.6800876785
F4631276.570257836
tp10
(dp11
s(F729391.2088385731
F4631384.789785755
tp12
(dp13
s(F726826.2756694907
F4631705.499430151
tp14
(dp15
s(F727775.4506711953
F4632247.288120112
tp16
(dp17
s(F724663.5897541778
F4632590.623597024
tp18
(dp19
s(F726213.9693830318
F4633749.468231625
tp20
(dp21
s(F725700.7304960729
F4633035.400425814
tp22
(dp23
s(F724323.8752065112
F4632078.939208441
tp24
(dp25
s(F727775.4484366819
F4632247.284586716
tp26
(dp27
s(F726042.5418736974
F4633688.900763541
tp28
(dp29
s(F727971.2397797378
F4631165.885940926
tp30
(dp31
s(F725765.3345228384
F4631474.669762542
tp32
(dp33
s(F728224.6153150826
F4631732.758495705
tp34
(dp35
s(F727340.1646127907
F4632114.151579405
tp36
(dp37
s(F728723.2615229886
F4631722.04153178
tp38
(dp39
s(F728160.1627588937
F4632311.905502785
tp40
(dp41
s(F728014.6482978611
F4633143.571924035
tp42
(dp43
s(F727689.7435908804
F4631522.407143205
tp44
(dp45
s(F727756.4573303794
F4632591.895823977
tp46
(dp47
s(F725626.577917748
F4632493.4189114785
tp48
(dp49
s(F727677.4214841509
F4632217.900641248
tp50
(dp51
s(F729020.1725859422
F4631455.014636906
tp52
(dp53
s(F728158.0507714676
F4630288.858380589
tp54
(dp55
s(F725166.6456046148
F4632227.576128729
tp56
(dp57
s(F727696.4856245794
F4631555.373154681
tp58
(dp59
s(F725164.7990262255
F4632222.849553473
tp60
(dp61
s(F724640.1448509705
F4634514.438614936
tp62
(dp63
s(F725824.2050481692
F4631624.807255327
tp64
(dp65
s(F725721.7056098223
F4633105.644505014
tp66
(dp67
s(F728171.306125866
F4631794.180820483
tp68
(dp69
s(F727646.6108911191
F4631831.126577156
tp70
(dp71
s(F729600.7494761918
F4631014.159328508
tp72
(dp73
s(F729209.4409303941
F4631375.614266914
tp74
(dp75
s(F728240.6765748361
F4632726.974268271
tp76
(dp77
s(F729067.0179315833
F4631103.775535202
tp78
(dp79
s(F727774.2353016367
F4632248.668129582
tp80
(dp81
s(F727248.7865143036
F4631529.540895255
tp82
(dp83
s(F727424.5886951046
F4630679.16004215
tp84
(dp85
s(F729068.5282015018
F4631863.279299082
tp86
(dp87
s(F728284.9363738117
F4631663.342794701
tp88
(dp89
s(F728969.4360062843
F4631112.756734935
tp90
(dp91
s(F728519.1505597022
F4632763.67901488
tp92
(dp93
s(F728418.4471356437
F4631714.499849313
tp94
(dp95
s(F723262.7673813066
F4630982.015356659
tp96
(dp97
s(F728081.5337174463
F4631896.7946159765
tp98
(dp99
s(F727774.2731539444
F4632248.620117873
tp100
(dp101
s(F727534.0742046055
F4632465.283567255
tp102
(dp103
s(F727317.9337515975
F4632126.184802818
tp104
(dp105
s(F725019.016482278
F4633475.02001315
tp106
(dp107
s(F727560.5284006596
F4631189.56876712
tp108
(dp109
s(F728067.4629138869
F4631912.906597308
tp110
(dp111
s(F728901.411629567
F4632038.096214111
tp112
(dp113
s(F728025.9285397108
F4631217.123794687
tp114
(dp115
s(F728981.8130578371
F4631717.329459975
tp116
(dp117
s(F727734.090662459
F4634567.814061576
tp118
(dp119
s(F728094.3459866289
F4632708.5489696525
tp120
(dp121
s(F724321.6679559291
F4632075.024204837
tp122
(dp123
s(F727998.050386104
F4630641.657347396
tp124
(dp125
s(F728654.9685924951
F4632506.04231694
tp126
(dp127
s(F725348.5754689572
F4633165.091994523
tp128
(dp129
s(F728330.4655250319
F4632480.753269472
tp130
(dp131
s(F727094.3836619088
F4631604.098665779
tp132
(dp133
s(F727319.2082004835
F4632125.336194404
tp134
(dp135
s(F728819.2241334657
F4632126.939325336
tp136
(dp137
s(F726343.2995946307
F4633318.41485946
tp138
(dp139
s(F728965.9116623506
F4633107.92132765
tp140
(dp141
s(F728395.1640872674
F4630487.735427786
tp142
(dp143
s(F729160.8634227808
F4630103.787125321
tp144
(dp145
s(F729017.1058609276
F4632973.471231069
tp146
(dp147
s(F728318.3565299821
F4631624.819116834
tp148
(dp149
s(F727111.9404279696
F4633104.880091403
tp150
(dp151
s(F726827.3157548559
F4631335.286919805
tp152
(dp153
s(F725196.0250819998
F4632239.951938543
tp154
(dp155
s(F726264.8857600644
F4632998.9232813595
tp156
(dp157
s(F727585.9082326686
F4631340.433692854
tp158
(dp159
s(F729120.5688592804
F4631506.558666509
tp160
(dp161
s(F727685.0132996463
F4631526.552047027
tp162
(dp163
s(F726653.0159901723
F4632543.966169179
tp164
(dp165
s(F726771.733284397
F4632712.243817899
tp166
(dp167
s(F726586.181130031
F4632700.344775771
tp168
(dp169
s(F727584.242760262
F4630991.029069324
tp170
(dp171
s(F727732.1405902479
F4632296.3732568985
tp172
(dp173
s(F726307.4487018035
F4629660.857193117
tp174
(dp175
s(F726609.7666895215
F4633980.782654444
tp176
(dp177
s(F725216.4680115121
F4633309.526479635
tp178
(dp179
s(F728959.3962362842
F4632213.690537725
tp180
(dp181
s(F730816.8087736744
F4632900.688532272
tp182
(dp183
s(F727608.1585444275
F4631657.149472053
tp184
(dp185
s(F727451.0649473364
F4631651.695364726
tp186
(dp187
s(F728006.1047585672
F4632127.180763112
tp188
(dp189
s(F724592.4215080184
F4632483.424554699
tp190
(dp191
s(F728878.9007617348
F4633397.788007682
tp192
(dp193
s(F729503.8575587004
F4635197.35480215
tp194
(dp195
s(F725254.4101717658
F4634158.689746041
tp196
(dp197
s(F724698.2345369158
F4632116.11664999
tp198
(dp199
s(F727847.7011662095
F4633100.336774416
tp200
(dp201
s(F727565.2380166536
F4631605.206145283
tp202
(dp203
s(F726431.2218323466
F4632756.779383113
tp204
(dp205
s(F726837.7327791171
F4632623.473596014
tp206
(dp207
s(F729741.2093038531
F4631053.693314294
tp208
(dp209
s(F727955.6112231173
F4633297.076681268
tp210
(dp211
s(F726446.4651989109
F4632588.313339565
tp212
(dp213
s(F724967.3983904383
F4631781.915916808
tp214
(dp215
s(F726942.5518265516
F4631822.7938673105
tp216
(dp217
s(F727387.2552190276
F4632816.10957179
tp218
(dp219
s(F728013.1524080249
F4633148.748295793
tp220
(dp221
s(F727716.8329913714
F4631974.877080146
tp222
(dp223
s(F728241.6771468419
F4630563.745069347
tp224
(dp225
s(F727997.2381720252
F4630648.856320788
tp226
(dp227
s(F726685.8531262018
F4631599.444357995
tp228
(dp229
s(F728114.3337081606
F4632220.137771262
tp230
(dp231
s(F728338.5800537178
F4631793.307605878
tp232
(dp233
s(F729178.9132283742
F4631991.98381625
tp234
(dp235
s(F728255.7493229044
F4630597.096323287
tp236
(dp237
s(F727421.0344274084
F4631461.446023394
tp238
(dp239
s(F725343.450275594
F4635149.964877695
tp240
(dp241
s(F727345.859763312
F4631252.307735658
tp242
(dp243
s(F724658.3619571324
F4631960.584465782
tp244
(dp245
s(F728029.4367409265
F4631668.629349683
tp246
(dp247
s(F726569.0803057437
F4632686.352230362
tp248
(dp249
s(F728440.5183195851
F4631019.831780597
tp250
(dp251
s(F724945.167533184
F4631244.696843686
tp252
(dp253
s(F728481.1384234718
F4631771.503874317
tp254
(dp255
s(F727999.7439334573
F4632871.103799701
tp256
(dp257
s(F724724.3757691045
F4631719.684537816
tp258
(dp259
s(F727981.5276203982
F4631518.124125179
tp260
(dp261
s(F728065.3691980868
F4631538.699011285
tp262
(dp263
s(F727845.1239324356
F4631492.314807826
tp264
(dp265
s(F728579.9923637034
F4631860.566779728
tp266
(dp267
s(F728067.4618237446
F4631912.90784649
tp268
(dp269
s(F725901.1494469866
F4631511.312989577
tp270
(dp271
s(F727740.3719835463
F4631264.331597562
tp272
(dp273
s(F728034.1653009783
F4633079.282497208
tp274
(dp275
s(F728384.4201326583
F4632590.299336023
tp276
(dp277
s(F725030.5220191204
F4632188.795378779
tp278
(dp279
s(F729512.0593959909
F4631340.768176898
tp280
(dp281
s(F728817.3739077945
F4634856.158019185
tp282
(dp283
s(F728962.0627664127
F4633112.457004273
tp284
(dp285
s(F724061.8961527605
F4631531.791965361
tp286
(dp287
s(F727518.1855974125
F4632235.71803905
tp288
(dp289
s(F728900.1131181453
F4631841.280856979
tp290
(dp291
s(F728933.5376774925
F4631998.444699472
tp292
(dp293
s(F727736.487501654
F4632446.426251695
tp294
(dp295
s(F728790.5880432061
F4632008.531362715
tp296
(dp297
s(F724870.5928222926
F4633156.451290536
tp298
(dp299
s(F728944.9686424374
F4631152.263791159
tp300
(dp301
s(F728293.0408764548
F4632070.289103353
tp302
(dp303
s(F727804.9283113137
F4633081.626943023
tp304
(dp305
s(F728014.3995625204
F4630650.627222964
tp306
(dp307
s(F727730.9223290035
F4632297.74862613
tp308
(dp309
s(F728544.9608314405
F4631298.502488052
tp310
(dp311
s(F728249.9793428495
F4631703.570101636
tp312
(dp313
s(F724547.4795654535
F4632303.648269719
tp314
(dp315
s(F728423.6760749947
F4630480.533640647
tp316
(dp317
s(F725074.0942129402
F4632077.2710229345
tp318
(dp319
s(F727078.7592654369
F4630895.453916756
tp320
(dp321
s(F724738.5383854043
F4631723.73688523
tp322
(dp323
s(F729017.7362828713
F4633170.599774526
tp324
(dp325
s(F725465.8074068476
F4632670.73294262
tp326
(dp327
s(F728501.9754338262
F4632103.099080149
tp328
(dp329
s(F726602.2264399002
F4630974.897184673
tp330
(dp331
s(F726251.9408204223
F4631348.80979479
tp332
(dp333
s(F727317.0263632541
F4632127.303906278
tp334
(dp335
s(F724941.6666924856
F4630933.590732058
tp336
(dp337
s(F728307.6604702758
F4633364.582260795
tp338
(dp339
s(F725284.9268239368
F4634019.048840103
tp340
(dp341
s(F728955.7979321535
F4631955.2532279305
tp342
(dp343
s(F725595.1891667515
F4632860.111522688
tp344
(dp345
s(F728801.7843468464
F4631599.733513711
tp346
(dp347
s(F726360.1517642636
F4633803.792113558
tp348
(dp349
s(F728334.3095166851
F4630692.088354165
tp350
(dp351
s(F726713.2376079147
F4632587.895247331
tp352
(dp353
s(F724483.1348884697
F4632318.426867637
tp354
(dp355
s(F726476.7471558268
F4632538.380777539
tp356
(dp357
s(F727775.4488190793
F4632247.285191394
tp358
(dp359
s(F727334.4917590246
F4632483.39985325
tp360
(dp361
s(F728398.3156278314
F4631491.2154450845
tp362
(dp363
s(F728005.7003876327
F4631983.94122803
tp364
(dp365
s(F728025.5150729788
F4631217.224802062
tp366
(dp367
s(F727985.1276746566
F4631821.908592874
tp368
(dp369
s(F726846.615433378
F4631724.930683789
tp370
(dp371
s(F727562.3254949934
F4631130.604245016
tp372
(dp373
s(F727737.933509986
F4631615.6103266515
tp374
(dp375
s(F727732.5353298677
F4631991.826355495
tp376
(dp377
s(F728298.9886154645
F4630535.122068846
tp378
(dp379
s(F724657.1808506532
F4631959.649798417
tp380
(dp381
s(F728416.0452431991
F4630716.378527694
tp382
(dp383
s(F724592.141465068
F4632483.004113668
tp384
(dp385
s(F724761.252566339
F4632116.869504925
tp386
(dp387
s(F727935.2773578016
F4632065.074309645
tp388
(dp389
s(F728461.5517589625
F4632734.26779185
tp390
(dp391
s(F729864.9742571779
F4628945.519893037
tp392
(dp393
s(F728271.3171141271
F4632387.093135622
tp394
(dp395
s(F727998.899583419
F4630635.904539208
tp396
(dp397
s(F727402.8626071409
F4631781.096196294
tp398
(dp399
s(F728965.6743760285
F4631743.377329268
tp400
(dp401
s(F725931.4680210997
F4632250.423800881
tp402
(dp403
s(F729678.2662913396
F4630947.0708854245
tp404
(dp405
s(F728381.087111431
F4631743.648752601
tp406
(dp407
s(F725179.7467832158
F4631230.087638599
tp408
(dp409
s(F727741.0498387511
F4631180.544297418
tp410
(dp411
s(F727744.8260648369
F4631599.042711487
tp412
(dp413
s(F728971.5680986852
F4632212.747349851
tp414
(dp415
s(F727451.52506709
F4632103.00231621
tp416
(dp417
s(F724799.1809815308
F4632042.705297973
tp418
(dp419
s(F728468.7282729447
F4632829.533963107
tp420
(dp421
s(F729776.5617357248
F4633754.1184659675
tp422
(dp423
s(F727661.461909629
F4632267.187655033
tp424
(dp425
s(F727209.1108120229
F4632761.193828724
tp426
(dp427
s(F727921.2775405501
F4633257.853791843
tp428
(dp429
s(F728032.71061219
F4632760.671161956
tp430
(dp431
s(F728521.0369477848
F4632419.27447721
tp432
(dp433
s(F727468.735433178
F4632835.899050315
tp434
(dp435
s(F728132.4480723611
F4631292.750041881
tp436
(dp437
s(F727884.8839327868
F4632913.561497866
tp438
(dp439
s(F727012.831276264
F4630996.505185294
tp440
(dp441
s(F728375.4258034241
F4631507.378096166
tp442
(dp443
s(F725900.3449461921
F4633214.670913299
tp444
(dp445
s(F727991.1881340323
F4632301.060040966
tp446
(dp447
s(F726264.6108973448
F4633767.525428516
tp448
(dp449
s(F727773.5613661247
F4631232.934365311
tp450
(dp451
s(F728161.4858910907
F4630813.720352703
tp452
(dp453
s(F728420.1457844215
F4630601.2440257175
tp454
(dp455
s(F727317.9427992324
F4632126.191697331
tp456
(dp457
s(F727979.2314122722
F4632802.644758684
tp458
(dp459
s(F726999.3773050933
F4634232.354082956
tp460
(dp461
s(F727893.8094297142
F4633118.257010953
tp462
(dp463
s(F728521.2580538179
F4632812.098365611
tp464
(dp465
s(F727729.9990457414
F4631232.32212005
tp466
(dp467
s(F724650.5087041763
F4631952.437302046
tp468
(dp469
s(F728239.1895828937
F4631416.542017237
tp470
(dp471
s(F728029.4367409265
F4631668.629349684
tp472
(dp473
s(F725168.1132012199
F4633450.605034971
tp474
(dp475
s(F728608.4918170609
F4632581.026393562
tp476
(dp477
s(F728021.4737335377
F4632140.120369077
tp478
(dp479
s(F728684.9569593335
F4630711.317789298
tp480
(dp481
s(F729212.6435106986
F4631371.715589921
tp482
(dp483
s(F726203.3036678045
F4633461.915100616
tp484
(dp485
s(F728119.1858354588
F4631747.949240909
tp486
(dp487
s(F728061.8809991396
F4632175.56186292
tp488
(dp489
s(F729567.6577481428
F4632631.839216878
tp490
(dp491
s(F725067.211299603
F4633460.090781249
tp492
(dp493
s(F729429.954683168
F4631250.64945156
tp494
(dp495
s(F728126.2493309983
F4632677.5637611495
tp496
(dp497
s(F728958.6109288177
F4632201.883009868
tp498
(dp499
s(F729201.2805355573
F4633363.680350743
tp500
(dp501
s(F728682.2089037469
F4630633.533536969
tp502
(dp503
s(F728553.4999198893
F4631984.814922466
tp504
(dp505
s(F729068.1863047086
F4631586.383659422
tp506
(dp507
s(F727226.3262357127
F4633054.30469262
tp508
(dp509
s(F728762.6295774302
F4631843.016164692
tp510
(dp511
s(F725984.0375982595
F4629389.410405695
tp512
(dp513
s(F728444.1319174186
F4632530.410080707
tp514
(dp515
s(F727404.8688828783
F4631444.14685402
tp516
(dp517
s(F729210.4286052225
F4631715.110739043
tp518
(dp519
s(F728483.130829698
F4631530.722516304
tp520
(dp521
s(F727373.152007082
F4631027.427565214
tp522
(dp523
s(F728063.0301295612
F4630656.738218881
tp524
(dp525
s(F727867.7805880614
F4633719.430158036
tp526
(dp527
s(F728633.538580009
F4631908.460396009
tp528
(dp529
s(F727849.4129105412
F4632132.246565969
tp530
(dp531
s(F725138.39745622
F4634012.530779428
tp532
(dp533
s(F725154.5352186314
F4631188.277934591
tp534
(dp535
s(F727733.3421069515
F4631205.75222469
tp536
(dp537
s(F728022.8307989786
F4630686.131958817
tp538
(dp539
s(F727729.4023839523
F4631068.575588884
tp540
(dp541
s(F726475.6063899203
F4632539.998494855
tp542
(dp543
s(F728844.3245670937
F4631715.141496911
tp544
(dp545
s(F726636.1027871186
F4632741.278449635
tp546
(dp547
s(F729822.4053214818
F4632604.917557038
tp548
(dp549
s(F728040.7285173867
F4631943.606029236
tp550
(dp551
s(F724550.8523048126
F4632302.676132171
tp552
(dp553
s(F727560.5284006597
F4631189.568767119
tp554
(dp555
s(F725396.8752380656
F4633407.369826292
tp556
(dp557
s(F728770.6890004126
F4631002.730883477
tp558
(dp559
s(F728179.1365034595
F4632341.697314924
tp560
(dp561
s(F728680.2630826856
F4632178.727404295
tp562
(dp563
s(F729634.0738265726
F4631110.713250199
tp564
(dp565
s(F726345.6542054281
F4633383.068515438
tp566
(dp567
s(F727312.8464071109
F4632132.45915058
tp568
(dp569
s(F727632.957364347
F4631521.111998735
tp570
(dp571
s(F729088.1758663505
F4631272.015041489
tp572
(dp573
s(F727091.5372080798
F4631717.049453734
tp574
(dp575
s(F727977.5889129568
F4631422.740378108
tp576
(dp577
s(F729675.0710133899
F4633518.312213309
tp578
(dp579
s(F724539.7263689208
F4631876.258334423
tp580
(dp581
s(F728421.5210681092
F4631875.659405485
tp582
(dp583
s(F728119.2692560875
F4631748.022969116
tp584
(dp585
s(F728095.4574558064
F4631880.862325012
tp586
(dp587
s(F725203.4880003525
F4631068.113816458
tp588
(dp589
s(F723349.0547435044
F4633761.29923195
tp590
(dp591
s(F726527.3596068854
F4634080.756968588
tp592
(dp593
s(F728615.4323211496
F4632279.959894167
tp594
(dp595
s(F726169.1880161108
F4632872.843706683
tp596
(dp597
s(F728771.3020417456
F4631541.400841073
tp598
(dp599
s(F727217.378053271
F4631189.082831979
tp600
(dp601
s(F727815.8044348673
F4632124.043413935
tp602
(dp603
s(F727892.1920261204
F4630388.072427527
tp604
(dp605
s(F726396.8222934516
F4633696.250227833
tp606
(dp607
s(F728930.0765292625
F4632755.14893453
tp608
(dp609
s(F729564.8837038452
F4633919.146030051
tp610
(dp611
s(F728321.7955507009
F4632000.738142483
tp612
(dp613
s(F726002.654428205
F4633323.616947633
tp614
(dp615
s(F728101.0273844393
F4632908.68772428
tp616
(dp617
s(F727501.1528820872
F4631570.150343371
tp618
(dp619
s(F724622.006754156
F4632139.27079971
tp620
(dp621
s(F726695.2973779052
F4630823.019350788
tp622
(dp623
s(F727911.9707224206
F4632945.438683092
tp624
(dp625
s(F728704.1888070406
F4632140.5905886125
tp626
(dp627
s(F726608.6155082049
F4632847.4440087
tp628
(dp629
s(F728604.7917315748
F4632296.270615568
tp630
(dp631
s(F728570.550418529
F4632446.75961431
tp632
(dp633
s(F728804.9418171004
F4630432.388758342
tp634
(dp635
s(F726180.5470496845
F4632700.808669806
tp636
(dp637
s(F726679.2320452142
F4632561.583108358
tp638
(dp639
s(F725491.5438263947
F4633439.92869529
tp640
(dp641
s(F727774.2296124296
F4632248.659069085
tp642
(dp643
s(F727904.188254968
F4632405.653728924
tp644
(dp645
s(F729013.4438309981
F4631998.897306046
tp646
(dp647
s(F726368.1235148873
F4632145.779319484
tp648
(dp649
s(F728618.7167365394
F4630881.038737223
tp650
(dp651
s(F726008.4390609307
F4633676.260054162
tp652
(dp653
s(F728101.5996920384
F4632907.7064794125
tp654
(dp655
s(F727226.2841460735
F4633055.625763786
tp656
(dp657
s(F726430.9409596003
F4631020.478873167
tp658
(dp659
s(F728068.1176288077
F4630614.662767228
tp660
(dp661
s(F728664.8643691958
F4630917.863927344
tp662
(dp663
s(F723473.1595553795
F4632931.465369329
tp664
(dp665
s(F727565.5289352797
F4631382.243923443
tp666
(dp667
s(F729185.2926239066
F4631350.607051305
tp668
(dp669
s(F724945.2539824693
F4633006.308413825
tp670
(dp671
s(F727995.8607604454
F4633148.640090804
tp672
(dp673
s(F727216.6420967213
F4631546.52384121
tp674
(dp675
s(F728314.0865971061
F4630502.592576575
tp676
(dp677
s(F729656.7098364823
F4630694.167646158
tp678
(dp679
s(F727898.4326808064
F4632929.333516858
tp680
(dp681
s(F724963.391528518
F4634473.725525812
tp682
(dp683
s(F726287.580718046
F4632786.78882651
tp684
(dp685
s(F729012.5096368955
F4630485.952190727
tp686
(dp687
s(F726492.2061906102
F4633467.861842199
tp688
(dp689
s(F727446.074310411
F4632118.565068769
tp690
(dp691
s(F728991.7593916691
F4631573.259732309
tp692
(dp693
s(F724669.4282472077
F4631969.483153391
tp694
(dp695
s(F728240.0166194064
F4632727.677658365
tp696
(dp697
s(F729531.8438617149
F4633935.644825345
tp698
(dp699
s(F726615.5046853792
F4631541.522963035
tp700
(dp701
s(F726525.8003416518
F4632650.965273109
tp702
(dp703
s(F727593.6692021153
F4631678.584297002
tp704
(dp705
s(F729230.5728435717
F4631383.1846328955
tp706
(dp707
s(F725976.7996902687
F4633512.421114313
tp708
(dp709
s(F724658.7622777099
F4631959.699596804
tp710
(dp711
s(F728166.0843970547
F4632324.8441856485
tp712
(dp713
s(F731199.4938504525
F4630957.840961872
tp714
(dp715
s(F725977.0630058948
F4633514.992326622
tp716
(dp717
s(F727518.184219662
F4632235.717757232
tp718
(dp719
s(F728825.3748999396
F4631955.043469165
tp720
(dp721
s(F727745.6430894894
F4631294.622136245
tp722
(dp723
s(F728467.6389156752
F4631830.118174891
tp724
(dp725
s(F728414.5658626399
F4631711.0409979075
tp726
(dp727
s(F725916.0414234584
F4632960.632804432
tp728
(dp729
s(F727189.6187861799
F4632034.731895083
tp730
(dp731
s(F728508.6495154193
F4632086.862135807
tp732
(dp733
s(F726400.389735997
F4633667.686420177
tp734
(dp735
s(F726362.1082355758
F4633254.988686624
tp736
(dp737
s(F727882.0055880835
F4633362.749923751
tp738
(dp739
s(F726289.5992196501
F4632785.639860204
tp740
(dp741
s(F728873.1673577781
F4631881.574673017
tp742
(dp743
s(F728797.099659346
F4631787.321910296
tp744
(dp745
s(F728286.7189687737
F4630520.835522417
tp746
(dp747
s(F728331.0772181919
F4630707.324059718
tp748
(dp749
s(F728575.3359261854
F4631796.442371214
tp750
(dp751
s(F727325.207608375
F4630662.98927952
tp752
(dp753
s(F730136.9798474425
F4633015.108355239
tp754
(dp755
s(F728424.570723455
F4631458.265295695
tp756
(dp757
s(F727843.0896611041
F4632170.614616393
tp758
(dp759
s(F728225.8264014801
F4630677.0587361725
tp760
(dp761
s(F727767.0900048219
F4632120.836734954
tp762
(dp763
s(F726064.609339201
F4630086.872348658
tp764
(dp765
s(F727417.1031963971
F4632432.68001016
tp766
(dp767
s(F729385.4503112381
F4631206.868969908
tp768
(dp769
s(F728545.0466901592
F4632697.705391532
tp770
(dp771
s(F728147.1224198302
F4632273.190092046
tp772
(dp773
s(F726318.2611754737
F4633358.07927658
tp774
(dp775
s(F726517.9151834664
F4632781.4288909845
tp776
(dp777
s(F727583.7654418792
F4631345.0337482495
tp778
(dp779
s(F729233.8966447223
F4633463.878577556
tp780
(dp781
s(F728241.62687238
F4630422.245901344
tp782
(dp783
s(F728028.8800985152
F4631668.137400657
tp784
(dp785
s(F727548.1902871036
F4631315.666566696
tp786
(dp787
s(F728380.6059180142
F4632487.695348086
tp788
(dp789
s(F728457.883212416
F4632511.287469881
tp790
(dp791
s(F727843.1275142595
F4632170.566605018
tp792
(dp793
s(F727919.1128365126
F4632237.845133024
tp794
(dp795
s(F728203.1606626901
F4632359.313082784
tp796
(dp797
s(F728545.8465884556
F4630824.128591656
tp798
(dp799
s(F727922.941355062
F4633013.259133458
tp800
(dp801
s(F724657.6473082518
F4631958.7185370345
tp802
(dp803
s(F727704.5252371902
F4632283.2342211725
tp804
(dp805
s(F729658.6308007092
F4630691.33944068
tp806
(dp807
s(F725773.6140886999
F4631454.813526391
tp808
(dp809
s(F729640.5023638355
F4630722.212854114
tp810
(dp811
s(F727643.4430953368
F4632727.562433023
tp812
(dp813
s(F726997.941714454
F4634229.313977048
tp814
(dp815
s(F728189.7557361568
F4633203.526521896
tp816
(dp817
s(F728011.8029704535
F4632132.210679294
tp818
(dp819
s(F726678.0954639415
F4632654.914284366
tp820
(dp821
s(F725081.9102351557
F4633866.252217513
tp822
(dp823
s(F726379.8479708114
F4633754.2881173305
tp824
(dp825
s(F729109.5490611134
F4631523.353480334
tp826
(dp827
s(F728687.3436717491
F4631545.2675764905
tp828
(dp829
s(F727732.1354478118
F4632296.365076472
tp830
(dp831
s(F727802.978240897
F4632351.179509729
tp832
(dp833
s(F725026.6095814506
F4632188.034203262
tp834
(dp835
s(F726615.6810014477
F4632724.51262158
tp836
(dp837
s(F728070.4692057244
F4631909.46419039
tp838
(dp839
s(F728544.1972221225
F4631828.679746407
tp840
(dp841
s(F728194.0195982729
F4630477.745148748
tp842
(dp843
s(F724482.5949015499
F4632317.61162436
tp844
(dp845
s(F727381.3368807395
F4633082.448028645
tp846
(dp847
s(F728454.9539764317
F4631221.036567812
tp848
(dp849
s(F725016.95398938
F4633961.902813891
tp850
(dp851
s(F727888.2274373128
F4633579.14146503
tp852
(dp853
ssS'graph'
p854
(dp855
sS'edge'
p856
(dp857
g8
(dp858
(F725916.0414234584
F4632960.632804432
tp859
(dp860
I0
(dp861
S'weight'
p862
F47.89138471905119
sss(F726169.1880161108
F4632872.843706683
tp863
(dp864
I0
(dp865
g862
F220.10169099454458
ssssg10
(dp866
(F728025.9285397108
F4631217.123794687
tp867
(dp868
I0
(dp869
g862
F59.771397838633916
sss(F727977.5889129568
F4631422.740378108
tp870
(dp871
I0
(dp872
g862
F153.10876097015637
ssssg12
(dp873
g74
(dp874
I0
(dp875
g862
F226.68774000853287
sss(F729512.0593959909
F4631340.768176898
tp876
(dp877
I0
(dp878
g862
F134.9068933129657
sss(F729429.954683168
F4631250.64945156
tp879
(dp880
I0
(dp881
g862
F172.1614577097801
ssssg14
(dp882
(F726685.8531262018
F4631599.444357995
tp883
(dp884
I0
(dp885
g862
F176.2577943173194
sssg216
(dp886
I0
(dp887
g862
F697.9722711422003
sss(F726846.615433378
F4631724.930683789
tp888
(dp889
I0
(dp890
g862
F28.130818392798517
ssssg16
(dp891
(F727774.2353016367
F4632248.668129582
tp892
(dp893
I0
(dp894
g862
F1.83889893685192
sss(F727843.0896611041
F4632170.614616393
tp895
(dp896
I0
(dp897
g862
F102.24412988323888
ssssg18
(dp898
g190
(dp899
I0
(dp900
g862
F128.67249131590978
sss(F724945.2539824693
F4633006.308413825
tp901
(dp902
I0
(dp903
g862
F502.15022816390797
sss(F725166.6456046148
F4632227.576128729
tp904
(dp905
I0
(dp906
g862
F625.7560028348698
ssssg20
(dp907
(F726042.5418736974
F4633688.900763541
tp908
(dp909
I0
(dp910
g862
F181.8136927165988
sss(F726203.3036678045
F4633461.915100616
tp911
(dp912
I0
(dp913
g862
F298.822528209109
sss(F726264.6108973448
F4633767.525428516
tp914
(dp915
I0
(dp916
g862
F53.764986628410384
ssssg22
(dp917
(F725595.1891667515
F4632860.111522688
tp918
(dp919
I0
(dp920
g862
F210.43817169326917
sss(F725721.7056098223
F4633105.644505014
tp921
(dp922
I0
(dp923
g862
F73.33249650329861
sss(F725916.0414234584
F4632960.632804432
tp924
(dp925
I0
(dp926
g862
F227.94136246606345
ssssg24
(dp927
(F724321.6679559291
F4632075.024204837
tp928
(dp929
I0
(dp930
g862
F4.494352940505145
sss(F724482.5949015499
F4632317.61162436
tp931
(dp932
I0
(dp933
g862
F287.35666325773263
ssssg26
(dp934
g642
(dp935
I0
(dp936
g862
F1.837045001667416
ssssg28
(dp937
g240
(dp938
I0
(dp939
g862
F1671.8500857140136
sss(F726008.4390609307
F4633676.260054162
tp940
(dp941
I0
(dp942
g862
F36.37084910577372
sss(F726213.9693830318
F4633749.468231625
tp943
g909
ssg30
(dp944
(F727741.0498387511
F4631180.544297418
tp945
(dp946
I0
(dp947
g862
F235.10580874944372
sssg366
(dp948
I0
(dp949
g862
F319.41665635175104
sssg114
(dp950
I0
(dp951
g862
F80.72640533291975
ssssg32
(dp952
(F725901.1494469866
F4631511.312989577
tp953
(dp954
I0
(dp955
g862
F142.928789265148
sssg808
(dp956
I0
(dp957
g862
F21.513282523128595
sss(F725203.4880003525
F4631068.113816458
tp958
(dp959
I0
(dp960
g862
F753.7673701380019
ssssg34
(dp961
(F728249.9793428495
F4631703.570101636
tp962
(dp963
I0
(dp964
g862
F38.66906066702583
sssg68
(dp965
I0
(dp966
g862
F81.33002872866075
ssssg36
(dp967
(F727319.2082004835
F4632125.336194404
tp968
(dp969
I0
(dp970
g862
F23.881490572260958
sssg690
(dp971
I0
(dp972
g862
F106.49836980517907
ssssg38
(dp973
g346
(dp974
I0
(dp975
g862
F145.41433325282063
sssg744
(dp976
I0
(dp977
g862
F98.65980472638026
ssssg40
(dp978
g772
(dp979
I0
(dp980
g862
F40.87079301218954
sss(F728166.0843970547
F4632324.8441856485
tp981
(dp982
I0
(dp983
g862
F14.246214784118045
ssssg42
(dp984
(F728034.1653009783
F4633079.282497208
tp985
(dp986
I0
(dp987
g862
F67.18663418066158
sssg672
(dp988
I0
(dp989
g862
F19.50775466026323
sss(F728013.1524080249
F4633148.748295793
tp990
(dp991
I0
(dp992
g862
F5.388182530113163
ssssg44
(dp993
(F727745.6430894894
F4631294.622136245
tp994
(dp995
I0
(dp996
g862
F299.7475530279037
sss(F727685.0132996463
F4631526.552047027
tp997
(dp998
I0
(dp999
g862
F6.289346774660189
ssssg46
(dp1000
g812
(dp1001
I0
(dp1002
g862
F189.5822367090016
sssg294
(dp1003
I0
(dp1004
g862
F207.00460340932815
sssg644
(dp1005
I0
(dp1006
g862
F240.18073153202224
ssssg48
(dp1007
(F725465.8074068476
F4632670.73294262
tp1008
(dp1009
I0
(dp1010
g862
F239.34791241099455
ssssg50
(dp1011
g762
(dp1012
I0
(dp1013
g862
F136.46365356991035
sssg424
(dp1014
I0
(dp1015
g862
F51.83286383256639
sss(F727446.074310411
F4632118.565068769
tp1016
(dp1017
I0
(dp1018
g862
F254.2305361142384
ssssg52
(dp1019
g826
(dp1020
I0
(dp1021
g862
F112.50968412882519
ssssg54
(dp1022
g142
(dp1023
I0
(dp1024
g862
F332.2647570937348
ssssg56
(dp1025
g60
(dp1026
I0
(dp1027
g862
F5.074481785630407
sssg154
(dp1028
I0
(dp1029
g862
F31.930370524817377
sssg18
g905
ssg58
(dp1030
g202
(dp1031
I0
(dp1032
g862
F163.37534069970056
ssI1
(dp1033
g862
F163.37534069970056
ssI2
(dp1034
g862
F163.37534069970056
sssg412
(dp1035
I0
(dp1036
g862
F69.16164577660835
sssg162
(dp1037
I0
(dp1038
g862
F31.730575936683472
ssssg60
(dp1039
g56
g1026
s(F725824.2050481692
F4631624.807255327
tp1040
(dp1041
I0
(dp1042
g862
F896.0687731960273
sss(F725030.5220191204
F4632188.795378779
tp1043
(dp1044
I0
(dp1045
g862
F139.12632250766242
ssssg62
(dp1046
g682
(dp1047
I0
(dp1048
g862
F325.80274951247765
sssg850
(dp1049
I0
(dp1050
g862
F707.8843177456447
ssssg64
(dp1051
g270
(dp1052
I0
(dp1053
g862
F269.291489082418
ssI1
(dp1054
g862
F139.26450193570207
sss(F725164.7990262255
F4632222.849553473
tp1055
g1041
ssg66
(dp1056
g640
(dp1057
I0
(dp1058
g862
F410.1001089305104
sss(F725976.7996902687
F4633512.421114313
tp1059
(dp1060
I0
(dp1061
g862
F520.321010829966
sssg22
g922
ssg68
(dp1062
g34
g965
sg584
(dp1063
I0
(dp1064
g862
F69.55849048203021
sssg586
(dp1065
I0
(dp1066
g862
F115.18124893516917
ssssg70
(dp1067
(F727737.933509986
F4631615.6103266515
tp1068
(dp1069
I0
(dp1070
g862
F234.07127942661606
sssg222
(dp1071
I0
(dp1072
g862
F180.0913262926635
ssssg72
(dp1073
(F729385.4503112381
F4631206.868969908
tp1074
(dp1075
I0
(dp1076
g862
F314.66984163892795
sssg208
(dp1077
I0
(dp1078
g862
F146.7520353780798
sssg810
(dp1079
I0
(dp1080
g862
F295.8961724307381
ssssg74
(dp1081
(F729391.2088385731
F4631384.789785755
tp1082
g874
sg160
(dp1083
I0
(dp1084
g862
F158.5163661086649
sss(F729212.6435106986
F4631371.715589921
tp1085
(dp1086
I0
(dp1087
g862
F5.045722314311144
ssssg76
(dp1088
g696
(dp1089
I0
(dp1090
g862
F0.964519981234343
sss(F728384.4201326583
F4632590.299336023
tp1091
(dp1092
I0
(dp1093
g862
F198.64555072108007
sssg496
(dp1094
I0
(dp1095
g862
F147.84770786463451
ssssg78
(dp1096
g668
(dp1097
I0
(dp1098
g862
F366.71087631108117
sss(F728969.4360062843
F4631112.756734935
tp1099
(dp1100
I0
(dp1101
g862
F106.64115990250752
ssssg80
(dp1102
g172
(dp1103
I0
(dp1104
g862
F63.62197737682299
sss(F727775.4506711953
F4632247.288120112
tp1105
g893
ssg82
(dp1106
(F727189.6187861799
F4632034.731895083
tp1107
(dp1108
I0
(dp1109
g862
F529.6805840399928
sss(F727216.6420967213
F4631546.52384121
tp1110
(dp1111
I0
(dp1112
g862
F36.355313831708884
sss(F727404.8688828783
F4631444.14685402
tp1113
(dp1114
I0
(dp1115
g862
F177.98634025529088
ssssg84
(dp1116
(F727325.207608375
F4630662.98927952
tp1117
(dp1118
I0
(dp1119
g862
F100.71568597766823
ssssg86
(dp1120
(F729178.9132283742
F4631991.98381625
tp1121
(dp1122
I0
(dp1123
g862
F169.57158944626048
sssg518
(dp1124
I0
(dp1125
g862
F210.07374913087256
sssg400
(dp1126
I0
(dp1127
g862
F158.12758066631343
ssssg88
(dp1128
g312
(dp1129
I0
(dp1130
g862
F53.293810493684845
sss(F728318.3565299821
F4631624.819116834
tp1131
(dp1132
I0
(dp1133
g862
F50.999812236031914
ssssg90
(dp1134
(F728944.9686424374
F4631152.263791159
tp1135
(dp1136
I0
(dp1137
g862
F46.61838460466159
sss(F729067.0179315833
F4631103.775535202
tp1138
g1100
ssg92
(dp1139
(F728545.0466901592
F4632697.705391532
tp1140
(dp1141
I0
(dp1142
g862
F70.87408013943434
sssg464
(dp1143
I0
(dp1144
g862
F48.46555136409254
sssg390
(dp1145
I0
(dp1146
g862
F64.67370597274187
ssssg94
(dp1147
g254
(dp1148
I0
(dp1149
g862
F84.73285618534183
sss(F728483.130829698
F4631530.722516304
tp1150
(dp1151
I0
(dp1152
g862
F210.4701234551378
sssg726
(dp1153
I0
(dp1154
g862
F5.198839598842575
ssssg96
(dp1155
g286
(dp1156
I0
(dp1157
g862
F1033.971498595616
ssssg98
(dp1158
g838
(dp1159
I0
(dp1160
g862
F16.820866073439458
sss(F728293.0408764548
F4632070.289103353
tp1161
(dp1162
I0
(dp1163
g862
F282.5891174052685
ssI1
(dp1164
g862
F282.5891174052685
sss(F728095.4574558064
F4631880.862325012
tp1165
(dp1166
I0
(dp1167
g862
F21.159120617556358
ssssg100
(dp1168
(F727775.4488190793
F4632247.285191394
tp1169
(dp1170
I0
(dp1171
g862
F1.778824671693064
ssssg102
(dp1172
(F727661.461909629
F4632267.187655033
tp1173
(dp1174
I0
(dp1175
g862
F243.10514539552528
sss(F727209.1108120229
F4632761.193828724
tp1176
(dp1177
I0
(dp1178
g862
F449.94155427306566
sss(F727417.1031963971
F4632432.68001016
tp1179
(dp1180
I0
(dp1181
g862
F121.42985092862048
ssssg104
(dp1182
g134
(dp1183
I0
(dp1184
g862
F1.531129061403318
sssg334
(dp1185
I0
(dp1186
g862
F1.440745001468647
ssssg106
(dp1187
g492
(dp1188
I0
(dp1189
g862
F54.900334999901276
ssssg108
(dp1190
(F727548.1902871036
F4631315.666566696
tp1191
(dp1192
I0
(dp1193
g862
F126.99792735076183
sss(F727562.3254949934
F4631130.604245016
tp1194
(dp1195
I0
(dp1196
g862
F58.99213611688758
ssssg110
(dp1197
g368
(dp1198
I0
(dp1199
g862
F125.19135428327485
ssssg112
(dp1200
g136
(dp1201
I0
(dp1202
g862
F130.72002517546167
ssssg114
(dp1203
(F728022.6800876785
F4631276.570257836
tp1204
g868
s(F727971.2397797378
F4631165.885940926
tp1205
g950
ssg116
(dp1206
(F728801.7843468464
F4631599.733513711
tp1207
(dp1208
I0
(dp1209
g862
F215.20189909429894
sss(F729068.1863047086
F4631586.383659422
tp1210
(dp1211
I0
(dp1212
g862
F156.87164666352882
sss(F728965.6743760285
F4631743.377329268
tp1213
(dp1214
I0
(dp1215
g862
F30.642285454690743
ssssg118
(dp1216
(F727888.2274373128
F4633579.14146503
tp1217
(dp1218
I0
(dp1219
g862
F1065.9375787291751
ssssg120
(dp1220
(F728032.71061219
F4632760.671161956
tp1221
(dp1222
I0
(dp1223
g862
F80.86858575684697
sss(F728126.2493309983
F4632677.5637611495
tp1224
(dp1225
I0
(dp1226
g862
F44.47835994876593
ssssg122
(dp1227
(F724061.8961527605
F4631531.791965361
tp1228
(dp1229
I0
(dp1230
g862
F605.3681143817648
sss(F724323.8752065112
F4632078.939208441
tp1231
g929
s(F724539.7263689208
F4631876.258334423
tp1232
(dp1233
I0
(dp1234
g862
F297.57390191772663
ssssg124
(dp1235
(F727997.2381720252
F4630648.856320788
tp1236
(dp1237
I0
(dp1238
g862
F7.244646962452042
ssssg126
(dp1239
g476
(dp1240
I0
(dp1241
g862
F88.21967275811664
sssg608
(dp1242
I0
(dp1243
g862
F372.80899890587517
sss(F728570.550418529
F4632446.75961431
tp1244
(dp1245
I0
(dp1246
g862
F103.17593118569107
ssssg128
(dp1247
g344
(dp1248
I0
(dp1249
g862
F393.6774865541126
ssssg130
(dp1250
g394
(dp1251
I0
(dp1252
g862
F113.44139428150942
sss(F728380.6059180142
F4632487.695348086
tp1253
(dp1254
I0
(dp1255
g862
F50.709652598825514
sss(F727904.188254968
F4632405.653728924
tp1256
(dp1257
I0
(dp1258
g862
F444.6226674641738
ssssg132
(dp1259
g574
(dp1260
I0
(dp1261
g862
F123.9378320412011
sssg370
(dp1262
I0
(dp1263
g862
F276.4706637826822
sss(F727216.6420967213
F4631546.52384121
tp1264
(dp1265
I0
(dp1266
g862
F135.16708638234488
ssssg134
(dp1267
(F727340.1646127907
F4632114.151579405
tp1268
g969
sg104
g1183
ssg136
(dp1269
g112
g1201
ssg138
(dp1270
(F726318.2611754737
F4633358.07927658
tp1271
(dp1272
I0
(dp1273
g862
F47.2278941385775
sss(F726203.3036678045
F4633461.915100616
tp1274
(dp1275
I0
(dp1276
g862
F315.97473369814986
sssg736
(dp1277
I0
(dp1278
g862
F66.26777716235149
ssssg140
(dp1279
g146
(dp1280
I0
(dp1281
g862
F148.9166539101413
sss(F728962.0627664127
F4633112.457004273
tp1282
(dp1283
I0
(dp1284
g862
F5.948643742529445
ssssg142
(dp1285
g54
g1023
s(F728423.6760749947
F4630480.533640647
tp1286
(dp1287
I0
(dp1288
g862
F30.152172757218164
sss(F728298.9886154645
F4630535.122068846
tp1289
(dp1290
I0
(dp1291
g862
F107.39402426911276
ssssg144
(dp1292
g678
(dp1293
I0
(dp1294
g862
F790.5542349619792
ssssg146
(dp1295
(F728965.9116623506
F4633107.92132765
tp1296
g1280
s(F728930.0765292625
F4632755.14893453
tp1297
(dp1298
I0
(dp1299
g862
F236.9164898770029
ssssg148
(dp1300
(F728375.4258034241
F4631507.378096166
tp1301
(dp1302
I0
(dp1303
g862
F130.5872495730361
sss(F728414.5658626399
F4631711.0409979075
tp1304
(dp1305
I0
(dp1306
g862
F129.19568365645847
sssg88
g1132
ssg150
(dp1307
(F727226.2841460735
F4633055.625763786
tp1308
(dp1309
I0
(dp1310
g862
F129.37346500710322
sss(F727209.1108120229
F4632761.193828724
tp1311
(dp1312
I0
(dp1313
g862
F365.9655631462918
ssssg152
(dp1314
g700
(dp1315
I0
(dp1316
g862
F307.0290978841374
ssssg154
(dp1317
(F725166.6456046148
F4632227.576128729
tp1318
g1028
sg326
(dp1319
I0
(dp1320
g862
F535.4483776718264
ssssg156
(dp1321
g596
(dp1322
I0
(dp1323
g862
F167.87139653925027
ssssg158
(dp1324
g786
(dp1325
I0
(dp1326
g862
F45.12324293013229
sss(F727583.7654418792
F4631345.0337482495
tp1327
(dp1328
I0
(dp1329
g862
F5.074648954392534
ssI1
(dp1330
g862
F5.074648954392534
sssg536
(dp1331
I0
(dp1332
g862
F237.46741042747368
ssI1
(dp1333
g862
F237.46741042747368
ssssg160
(dp1334
(F729109.5490611134
F4631523.353480334
tp1335
(dp1336
I0
(dp1337
g862
F20.087352316422418
sss(F729209.4409303941
F4631375.614266914
tp1338
g1083
ssg162
(dp1339
(F727696.4856245794
F4631555.373154681
tp1340
g1037
s(F727689.7435908804
F4631522.407143205
tp1341
g998
s(F727632.957364347
F4631521.111998735
tp1342
(dp1343
I0
(dp1344
g862
F53.996111183261895
ssssg164
(dp1345
(F726679.2320452142
F4632561.583108358
tp1346
(dp1347
I0
(dp1348
g862
F31.58769459220511
ssssg166
(dp1349
(F726636.1027871186
F4632741.278449635
tp1350
(dp1351
I0
(dp1352
g862
F138.70343994513271
ssssg168
(dp1353
(F726569.0803057437
F4632686.352230362
tp1354
(dp1355
I0
(dp1356
g862
F22.097043296032066
sssg776
(dp1357
I0
(dp1358
g862
F105.99477475336795
sss(F726615.6810014477
F4632724.51262158
tp1359
(dp1360
I0
(dp1361
g862
F38.136304200961305
ssssg170
(dp1362
g306
(dp1363
I0
(dp1364
g862
F563.6848238494994
sssg540
(dp1365
I0
(dp1366
g862
F164.5748004923755
sss(F727562.3254949934
F4631130.604245016
tp1367
(dp1368
I0
(dp1369
g862
F143.46554979677978
ssssg172
(dp1370
g80
g1103
sg308
(dp1371
I0
(dp1372
g862
F1.837335293833071
ssssg174
(dp1373
g512
(dp1374
I0
(dp1375
g862
F452.0930488242228
sss(F726064.609339201
F4630086.872348658
tp1376
(dp1377
I0
(dp1378
g862
F491.8283349300552
sssg226
(dp1379
I0
(dp1380
g862
F1993.8566461145042
ssssg176
(dp1381
(F726527.3596068854
F4634080.756968588
tp1382
(dp1383
I0
(dp1384
g862
F129.559989092176
sss(F726999.3773050933
F4634232.354082956
tp1385
(dp1386
I0
(dp1387
g862
F465.2430162144076
sss(F726360.1517642636
F4633803.792113558
tp1388
(dp1389
I0
(dp1390
g862
F307.25982982413007
ssssg178
(dp1391
(F724945.2539824693
F4633006.308413825
tp1392
(dp1393
I0
(dp1394
g862
F408.822224258251
sssg474
(dp1395
I0
(dp1396
g862
F152.19560366535765
sss(F725396.8752380656
F4633407.369826292
tp1397
(dp1398
I0
(dp1399
g862
F207.0481773022187
ssssg180
(dp1400
g626
(dp1401
I0
(dp1402
g862
F339.51545870790625
sss(F728971.5680986852
F4632212.747349851
tp1403
(dp1404
I0
(dp1405
g862
F12.209432769627398
sss(F728958.6109288177
F4632201.883009868
tp1406
(dp1407
I0
(dp1408
g862
F11.838876695414019
ssssg182
(dp1409
g754
(dp1410
I0
(dp1411
g862
F708.4504060086474
ssssg184
(dp1412
(F727565.2380166536
F4631605.206145283
tp1413
(dp1414
I0
(dp1415
g862
F67.38160654332893
ssssg186
(dp1416
(F727593.6692021153
F4631678.584297002
tp1417
(dp1418
I0
(dp1419
g862
F220.51645504289894
sssg238
(dp1420
I0
(dp1421
g862
F196.14799867930705
sssg398
(dp1422
I0
(dp1423
g862
F138.25426192096978
ssssg188
(dp1424
(F728011.8029704535
F4632132.210679294
tp1425
(dp1426
I0
(dp1427
g862
F7.600636518857685
sss(F727935.2773578016
F4632065.074309645
tp1428
(dp1429
I0
(dp1430
g862
F94.20069227486212
ssssg190
(dp1431
(F724483.1348884697
F4632318.426867637
tp1432
(dp1433
I0
(dp1434
g862
F197.90857135314903
sss(F724663.5897541778
F4632590.623597024
tp1435
g899
ssg192
(dp1436
(F729017.7362828713
F4633170.599774526
tp1437
(dp1438
I0
(dp1439
g862
F266.25139474860663
ssssg194
(dp1440
g460
(dp1441
I0
(dp1442
g862
F2823.223938939234
ssssg196
(dp1443
g340
(dp1444
I0
(dp1445
g862
F143.9533034226636
ssssg198
(dp1446
(F724761.252566339
F4632116.869504925
tp1447
(dp1448
I0
(dp1449
g862
F63.608539799345955
sss(F724622.006754156
F4632139.27079971
tp1450
(dp1451
I0
(dp1452
g862
F80.02521995704586
ssssg200
(dp1453
(F727893.8094297142
F4633118.257010953
tp1454
(dp1455
I0
(dp1456
g862
F49.468240730139776
sss(F727804.9283113137
F4633081.626943023
tp1457
(dp1458
I0
(dp1459
g862
F47.23928500921509
ssssg202
(dp1460
g58
g1031
sg184
g1414
sg666
(dp1461
I0
(dp1462
g862
F250.0475758121194
ssI1
(dp1463
g862
F250.0475758121194
ssI2
(dp1464
g862
F250.0475758121194
ssssg204
(dp1465
(F726525.8003416518
F4632650.965273109
tp1466
(dp1467
I0
(dp1468
g862
F142.08169064775598
ssssg206
(dp1469
g426
(dp1470
I0
(dp1471
g862
F476.18080323980143
ssssg208
(dp1472
(F729600.7494761918
F4631014.159328508
tp1473
g1077
ssg210
(dp1474
(F727882.0055880835
F4633362.749923751
tp1475
(dp1476
I0
(dp1477
g862
F98.64463638169072
sss(F728013.1524080249
F4633148.748295793
tp1478
(dp1479
I0
(dp1480
g862
F160.47062928648353
sssg852
(dp1481
I0
(dp1482
g862
F294.79956297869137
ssssg212
(dp1483
(F726289.5992196501
F4632785.639860204
tp1484
(dp1485
I0
(dp1486
g862
F253.80370058596264
sssg702
(dp1487
I0
(dp1488
g862
F101.09102189012214
sss(F726475.6063899203
F4632539.998494855
tp1489
(dp1490
I0
(dp1491
g862
F56.43991739965119
ssssg214
(dp1492
g694
(dp1493
I0
(dp1494
g862
F352.09043511031666
ssssg216
(dp1495
g14
g886
s(F727189.6187861799
F4632034.731895083
tp1496
(dp1497
I0
(dp1498
g862
F326.96798141410625
sss(F726846.615433378
F4631724.930683789
tp1499
(dp1500
I0
(dp1501
g862
F137.07502320847786
ssssg218
(dp1502
(F727468.735433178
F4632835.899050315
tp1503
(dp1504
I0
(dp1505
g862
F83.84896396657797
sssg508
(dp1506
I0
(dp1507
g862
F334.6250796370618
ssssg220
(dp1508
(F728307.6604702758
F4633364.582260795
tp1509
(dp1510
I0
(dp1511
g862
F367.0676846051617
sss(F727955.6112231173
F4633297.076681268
tp1512
g1479
s(F728014.6482978611
F4633143.571924035
tp1513
g991
ssg222
(dp1514
g70
g1071
sg376
(dp1515
I0
(dp1516
g862
F23.184229176645985
ssssg224
(dp1517
g660
(dp1518
I0
(dp1519
g862
F193.39537339369497
sssg842
(dp1520
I0
(dp1521
g862
F99.55537107795476
sss(F728298.9886154645
F4630535.122068846
tp1522
(dp1523
I0
(dp1524
g862
F64.06808859833006
ssssg226
(dp1525
(F726307.4487018035
F4629660.857193117
tp1526
g1379
s(F728063.0301295612
F4630656.738218881
tp1527
(dp1528
I0
(dp1529
g862
F66.26607821280774
sssg124
g1237
ssg228
(dp1530
(F726615.5046853792
F4631541.522963035
tp1531
(dp1532
I0
(dp1533
g862
F91.12586156433322
sssg648
(dp1534
I0
(dp1535
g862
F632.0640169035764
sss(F726826.2756694907
F4631705.499430151
tp1536
g884
ssg230
(dp1537
(F728147.1224198302
F4632273.190092046
tp1538
(dp1539
I0
(dp1540
g862
F63.24204512438008
sssg488
(dp1541
I0
(dp1542
g862
F68.85396962124517
ssssg232
(dp1543
g582
(dp1544
I0
(dp1545
g862
F117.84287527926759
sss(F728381.087111431
F4631743.648752601
tp1546
(dp1547
I0
(dp1548
g862
F65.83205199781132
ssssg234
(dp1549
g414
(dp1550
I0
(dp1551
g862
F358.5416588504418
sss(F729822.4053214818
F4632604.917557038
tp1552
(dp1553
I0
(dp1554
g862
F960.966992894426
sss(F729068.5282015018
F4631863.279299082
tp1555
g1122
ssg236
(dp1556
g454
(dp1557
I0
(dp1558
g862
F164.59721652387213
ssssg238
(dp1559
(F727451.0649473364
F4631651.695364726
tp1560
g1420
sg516
(dp1561
I0
(dp1562
g862
F23.67669932664676
ssI1
(dp1563
g862
F23.67669932664676
ssI2
(dp1564
g862
F23.67669932664676
ssssg240
(dp1565
g28
g938
ssg242
(dp1566
(F727217.378053271
F4631189.082831979
tp1567
(dp1568
I0
(dp1569
g862
F143.2705004706184
ssssg244
(dp1570
g380
(dp1571
I0
(dp1572
g862
F1.506192417219939
sss(F724669.4282472077
F4631969.483153391
tp1573
(dp1574
I0
(dp1575
g862
F14.202393492283349
ssssg246
(dp1576
(F728028.8800985152
F4631668.137400657
tp1577
(dp1578
I0
(dp1579
g862
F0.742875910687335
sssg486
(dp1580
I0
(dp1581
g862
F119.77706422102236
ssssg248
(dp1582
(F726586.181130031
F4632700.344775771
tp1583
g1355
s(F726525.8003416518
F4632650.965273109
tp1584
(dp1585
I0
(dp1586
g862
F55.90589477756352
sssg638
(dp1587
I0
(dp1588
g862
F166.435430139716
ssssg250
(dp1589
g798
(dp1590
I0
(dp1591
g862
F235.71567665925966
ssssg252
(dp1592
(F725154.5352186314
F4631188.277934591
tp1593
(dp1594
I0
(dp1595
g862
F239.548647537385
ssssg254
(dp1596
(F728418.4471356437
F4631714.499849313
tp1597
g1148
s(F728544.1972221225
F4631828.679746407
tp1598
(dp1599
I0
(dp1600
g862
F85.12061110833757
ssssg256
(dp1601
g680
(dp1602
I0
(dp1603
g862
F145.60048364366077
ssssg258
(dp1604
(F724738.5383854043
F4631723.73688523
tp1605
(dp1606
I0
(dp1607
g862
F14.755465835881939
sss(F724539.7263689208
F4631876.258334423
tp1608
(dp1609
I0
(dp1610
g862
F255.42075912926617
sss(F724669.4282472077
F4631969.483153391
tp1611
(dp1612
I0
(dp1613
g862
F740.4081319457098
ssssg260
(dp1614
g784
(dp1615
I0
(dp1616
g862
F166.10123594128157
sss(F727977.5889129568
F4631422.740378108
tp1617
(dp1618
I0
(dp1619
g862
F97.25806938125608
sssg264
(dp1620
I0
(dp1621
g862
F140.53208965293493
ssssg262
(dp1622
(F728239.1895828937
F4631416.542017237
tp1623
(dp1624
I0
(dp1625
g862
F227.86584276042214
sss(F728028.8800985152
F4631668.137400657
tp1626
(dp1627
I0
(dp1628
g862
F140.18807943462238
sssg576
(dp1629
I0
(dp1630
g862
F177.57588800633803
ssssg264
(dp1631
(F727744.8260648369
F4631599.042711487
tp1632
(dp1633
I0
(dp1634
g862
F153.07245966945854
sss(F727981.5276203982
F4631518.124125179
tp1635
g1620
ssg266
(dp1636
(F728633.538580009
F4631908.460396009
tp1637
(dp1638
I0
(dp1639
g862
F71.84029905206009
sss(F728544.1972221225
F4631828.679746407
tp1640
(dp1641
I0
(dp1642
g862
F47.93824330033085
ssssg268
(dp1643
(F728070.4692057244
F4631909.46419039
tp1644
(dp1645
I0
(dp1646
g862
F4.571992312813595
sssg550
(dp1647
I0
(dp1648
g862
F40.70688476589781
ssssg270
(dp1649
(F726251.9408204223
F4631348.80979479
tp1650
(dp1651
I0
(dp1652
g862
F417.0555035546858
sssg64
g1052
s(F725765.3345228384
F4631474.669762542
tp1653
g954
ssg272
(dp1654
(F727729.9990457414
F4631232.32212005
tp1655
(dp1656
I0
(dp1657
g862
F33.77528885494161
sss(F727745.6430894894
F4631294.622136245
tp1658
(dp1659
I0
(dp1660
g862
F30.751996143929155
sss(F727565.5289352797
F4631382.243923443
tp1661
(dp1662
I0
(dp1663
g862
F216.17585335987005
ssssg274
(dp1664
(F728101.0273844393
F4632908.68772428
tp1665
(dp1666
I0
(dp1667
g862
F183.65978390097501
sss(F728014.6482978611
F4633143.571924035
tp1668
g986
sg816
(dp1669
I0
(dp1670
g862
F199.19701619825736
ssssg276
(dp1671
g770
(dp1672
I0
(dp1673
g862
F193.28180293749233
ssI1
(dp1674
g862
F193.28180293749233
sss(F728240.6765748361
F4632726.974268271
tp1675
g1092
s(F728444.1319174186
F4632530.410080707
tp1676
(dp1677
I0
(dp1678
g862
F85.02183316416733
ssssg278
(dp1679
(F725026.6095814506
F4632188.034203262
tp1680
(dp1681
I0
(dp1682
g862
F3.985794360960919
sss(F725164.7990262255
F4632222.849553473
tp1683
g1044
ssg280
(dp1684
g714
(dp1685
I0
(dp1686
g862
F2472.350813641917
sss(F729391.2088385731
F4631384.789785755
tp1687
g877
sg494
(dp1688
I0
(dp1689
g862
F121.91232812478259
ssssg282
(dp1690
g698
(dp1691
I0
(dp1692
g862
F1310.5012871240933
ssssg284
(dp1693
(F728545.0466901592
F4632697.705391532
tp1694
(dp1695
I0
(dp1696
g862
F663.4679548781858
ssI1
(dp1697
g862
F663.4679548781858
sssg324
(dp1698
I0
(dp1699
g862
F80.49950056375242
sssg338
(dp1700
I0
(dp1701
g862
F951.0323323545356
sssg140
g1283
ssg286
(dp1702
(F724321.6679559291
F4632075.024204837
tp1703
g1229
s(F724941.6666924856
F4630933.590732058
tp1704
(dp1705
I0
(dp1706
g862
F1104.6086476151152
sss(F723473.1595553795
F4632931.465369329
tp1707
(dp1708
I0
(dp1709
g862
F1526.2644673261618
sssg96
g1156
ssg288
(dp1710
(F727661.461909629
F4632267.187655033
tp1711
(dp1712
I0
(dp1713
g862
F146.72230916983386
sssg456
(dp1714
I0
(dp1715
g862
F229.75836350569267
ssssg290
(dp1716
(F728873.1673577781
F4631881.574673017
tp1717
(dp1718
I0
(dp1719
g862
F48.48518153948764
sss(F728965.6743760285
F4631743.377329268
tp1720
(dp1721
I0
(dp1722
g862
F117.84672679992667
ssssg292
(dp1723
g342
(dp1724
I0
(dp1725
g862
F48.5905816850036
ssssg294
(dp1726
g46
g1003
sg804
(dp1727
I0
(dp1728
g862
F419.77932719216784
sssg832
(dp1729
I0
(dp1730
g862
F116.21657241319662
ssssg296
(dp1731
(F728704.1888070406
F4632140.5905886125
tp1732
(dp1733
I0
(dp1734
g862
F157.8114938337465
sss(F728825.3748999396
F4631955.043469165
tp1735
(dp1736
I0
(dp1737
g862
F63.80504548467293
sssg498
(dp1738
I0
(dp1739
g862
F285.40205678300316
ssssg298
(dp1740
g670
(dp1741
I0
(dp1742
g862
F192.50672442982432
ssssg300
(dp1743
g572
(dp1744
I0
(dp1745
g862
F186.7064184496067
sssg90
g1136
s(F728770.6890004126
F4631002.730883477
tp1746
(dp1747
I0
(dp1748
g862
F229.6379155646299
ssssg302
(dp1749
(F728501.9754338262
F4632103.099080149
tp1750
(dp1751
I0
(dp1752
g862
F284.36963787048575
sss(F728321.7955507009
F4632000.738142483
tp1753
(dp1754
I0
(dp1755
g862
F81.27809484705676
ssI1
(dp1756
g862
F81.27809484705676
sssg98
g1162
ssg304
(dp1757
(F727884.8839327868
F4632913.561497866
tp1758
(dp1759
I0
(dp1760
g862
F186.54479841708462
sss(F727847.7011662095
F4633100.336774416
tp1761
g1458
ssg306
(dp1762
g170
g1363
ssg308
(dp1763
(F727704.5252371902
F4632283.2342211725
tp1764
(dp1765
I0
(dp1766
g862
F30.125103386741714
sss(F727732.1405902479
F4632296.3732568985
tp1767
g1371
s(F727802.978240897
F4632351.179509729
tp1768
(dp1769
I0
(dp1770
g862
F89.7395040077266
ssssg310
(dp1771
g756
(dp1772
I0
(dp1773
g862
F222.7761290837499
sss(F728454.9539764317
F4631221.036567812
tp1774
(dp1775
I0
(dp1776
g862
F141.19408469655266
sssg558
(dp1777
I0
(dp1778
g862
F372.9883180235708
ssssg312
(dp1779
(F728224.6153150826
F4631732.758495705
tp1780
g963
s(F728284.9363738117
F4631663.342794701
tp1781
g1129
ssg314
(dp1782
(F724550.8523048126
F4632302.676132171
tp1783
(dp1784
I0
(dp1785
g862
F3.510045896719538
sssg384
(dp1786
I0
(dp1787
g862
F238.71131818586042
sssg844
(dp1788
I0
(dp1789
g862
F67.99962178187624
ssssg316
(dp1790
(F728395.1640872674
F4630487.735427786
tp1791
g1287
s(F728420.1457844215
F4630601.2440257175
tp1792
(dp1793
I0
(dp1794
g862
F120.8725974915725
sssg392
(dp1795
I0
(dp1796
g862
F2212.787415000179
ssssg318
(dp1797
g834
(dp1798
I0
(dp1799
g862
F120.5126393195918
ssssg320
(dp1800
(F727325.207608375
F4630662.98927952
tp1801
(dp1802
I0
(dp1803
g862
F427.53377112624264
sssg440
(dp1804
I0
(dp1805
g862
F132.14361541262267
sssg522
(dp1806
I0
(dp1807
g862
F323.05892741822595
ssssg322
(dp1808
(F724658.7622777099
F4631959.699596804
tp1809
(dp1810
I0
(dp1811
g862
F316.7703958412953
sss(F724724.3757691045
F4631719.684537816
tp1812
g1606
ssg324
(dp1813
g500
(dp1814
I0
(dp1815
g862
F269.5679930537786
sssg192
g1438
s(F728962.0627664127
F4633112.457004273
tp1816
g1698
ssg326
(dp1817
g48
g1009
s(F725595.1891667515
F4632860.111522688
tp1818
(dp1819
I0
(dp1820
g862
F235.4945535446871
sss(F725196.0250819998
F4632239.951938543
tp1821
g1319
ssg328
(dp1822
(F728293.0408764548
F4632070.289103353
tp1823
g1751
s(F728508.6495154193
F4632086.862135807
tp1824
(dp1825
I0
(dp1826
g862
F17.576576033386516
sssg562
(dp1827
I0
(dp1828
g862
F195.41883177145183
ssI1
(dp1829
g862
F195.41883177145183
ssssg330
(dp1830
g600
(dp1831
I0
(dp1832
g862
F750.0106041685821
sssg658
(dp1833
I0
(dp1834
g862
F180.9779907517756
sssg622
(dp1835
I0
(dp1836
g862
F186.06615514651793
ssssg332
(dp1837
(F725901.1494469866
F4631511.312989577
tp1838
g1651
s(F726430.9409596003
F4631020.478873167
tp1839
(dp1840
I0
(dp1841
g862
F374.56826480099545
sss(F726615.5046853792
F4631541.522963035
tp1842
(dp1843
I0
(dp1844
g862
F414.8895780361163
ssssg334
(dp1845
(F727312.8464071109
F4632132.45915058
tp1846
(dp1847
I0
(dp1848
g862
F6.636910212736294
sss(F727317.9337515975
F4632126.184802818
tp1849
g1185
ssg336
(dp1850
(F724061.8961527605
F4631531.791965361
tp1851
g1705
s(F725203.4880003525
F4631068.113816458
tp1852
(dp1853
I0
(dp1854
g862
F318.0721305419551
sss(F726064.609339201
F4630086.872348658
tp1855
(dp1856
I0
(dp1857
g862
F1425.7895335123533
ssssg338
(dp1858
g420
(dp1859
I0
(dp1860
g862
F564.9434267410205
sssg220
g1510
s(F728962.0627664127
F4633112.457004273
tp1861
g1700
ssg340
(dp1862
g196
g1444
s(F725138.39745622
F4634012.530779428
tp1863
(dp1864
I0
(dp1865
g862
F148.57055685020825
ssssg342
(dp1866
g742
(dp1867
I0
(dp1868
g862
F110.96887708712794
sssg292
g1724
sg646
(dp1869
I0
(dp1870
g862
F72.3045446892282
ssssg344
(dp1871
g128
g1248
s(F725700.7304960729
F4633035.400425814
tp1872
g919
s(F725465.8074068476
F4632670.73294262
tp1873
g1819
ssg346
(dp1874
(F728771.3020417456
F4631541.400841073
tp1875
(dp1876
I0
(dp1877
g862
F68.01137556110709
sssg116
g1208
sg38
g974
ssg348
(dp1878
(F726379.8479708114
F4633754.2881173305
tp1879
(dp1880
I0
(dp1881
g862
F53.27838393665662
sss(F726609.7666895215
F4633980.782654444
tp1882
g1389
s(F726264.6108973448
F4633767.525428516
tp1883
(dp1884
I0
(dp1885
g862
F102.23057143755713
ssssg350
(dp1886
(F728225.8264014801
F4630677.0587361725
tp1887
(dp1888
I0
(dp1889
g862
F109.52114978494717
sssg748
(dp1890
I0
(dp1891
g862
F15.575138425447454
sss(F728416.0452431991
F4630716.378527694
tp1892
(dp1893
I0
(dp1894
g862
F85.80779278196538
ssssg352
(dp1895
(F726679.2320452142
F4632561.583108358
tp1896
(dp1897
I0
(dp1898
g862
F42.9972613338893
ssssg354
(dp1899
(F724592.4215080184
F4632483.424554699
tp1900
g1433
s(F724482.5949015499
F4632317.61162436
tp1901
(dp1902
I0
(dp1903
g862
F0.977858616527807
ssssg356
(dp1904
g730
(dp1905
I0
(dp1906
g862
F901.4814816352493
sss(F726475.6063899203
F4632539.998494855
tp1907
(dp1908
I0
(dp1909
g862
F1.979483813766951
ssssg358
(dp1910
g792
(dp1911
I0
(dp1912
g862
F102.3042044584722
sssg100
g1170
ssg360
(dp1913
(F727417.1031963971
F4632432.68001016
tp1914
(dp1915
I0
(dp1916
g862
F96.93890894674068
ssssg362
(dp1917
(F728483.130829698
F4631530.722516304
tp1918
(dp1919
I0
(dp1920
g862
F94.59735355725074
sss(F728424.570723455
F4631458.265295695
tp1921
(dp1922
I0
(dp1923
g862
F46.45309021502021
sss(F728375.4258034241
F4631507.378096166
tp1924
(dp1925
I0
(dp1926
g862
F28.78179990905529
ssssg364
(dp1927
(F727935.2773578016
F4632065.074309645
tp1928
(dp1929
I0
(dp1930
g862
F107.4336119808548
sss(F728040.7285173867
F4631943.606029236
tp1931
(dp1932
I0
(dp1933
g862
F53.42188817193409
ssssg366
(dp1934
(F727971.2397797378
F4631165.885940926
tp1935
g948
ssg368
(dp1936
g110
g1198
ssg370
(dp1937
(F726826.2756694907
F4631705.499430151
tp1938
g889
s(F726942.5518265516
F4631822.7938673105
tp1939
g1500
sg132
g1262
ssg372
(dp1940
g410
(dp1941
I0
(dp1942
g862
F185.9821522924277
sssg108
g1195
s(F727584.242760262
F4630991.029069324
tp1943
g1368
ssg374
(dp1944
(F727646.6108911191
F4631831.126577156
tp1945
g1069
s(F727744.8260648369
F4631599.042711487
tp1946
(dp1947
I0
(dp1948
g862
F17.944168540497206
ssssg376
(dp1949
(F727767.0900048219
F4632120.836734954
tp1950
(dp1951
I0
(dp1952
g862
F134.75958721414463
sss(F727716.8329913714
F4631974.877080146
tp1953
g1515
ssg378
(dp1954
(F728241.6771468419
F4630563.745069347
tp1955
g1523
s(F728286.7189687737
F4630520.835522417
tp1956
(dp1957
I0
(dp1958
g862
F19.10735364729851
sss(F728395.1640872674
F4630487.735427786
tp1959
g1290
ssg380
(dp1960
g244
g1571
ssg382
(dp1961
(F728420.1457844215
F4630601.2440257175
tp1962
(dp1963
I0
(dp1964
g862
F115.24737862864717
sss(F728334.3095166851
F4630692.088354165
tp1965
g1893
s(F728545.8465884556
F4630824.128591656
tp1966
(dp1967
I0
(dp1968
g862
F168.72234267001113
ssssg384
(dp1969
g314
g1786
ssg386
(dp1970
(F725026.6095814506
F4632188.034203262
tp1971
(dp1972
I0
(dp1973
g862
F275.73395015862627
sssg198
g1448
sg418
(dp1974
I0
(dp1975
g862
F83.3453891567753
ssssg388
(dp1976
g364
g1929
sg530
(dp1977
I0
(dp1978
g862
F113.72468836201985
sssg188
g1429
ssg390
(dp1979
(F728519.1505597022
F4632763.67901488
tp1980
g1145
ssg392
(dp1981
g316
g1795
ssg394
(dp1982
(F728330.4655250319
F4632480.753269472
tp1983
g1251
sg796
(dp1984
I0
(dp1985
g862
F74.30123630249818
ssssg396
(dp1986
g604
(dp1987
I0
(dp1988
g862
F382.8805886752892
ssssg398
(dp1989
g186
g1422
ssg400
(dp1990
g290
g1721
s(F728981.8130578371
F4631717.329459975
tp1991
g1214
s(F729068.5282015018
F4631863.279299082
tp1992
g1126
ssg402
(dp1993
g542
(dp1994
I0
(dp1995
g862
F620.3434361367575
ssssg404
(dp1996
g564
(dp1997
I0
(dp1998
g862
F169.50747111440128
ssssg406
(dp1999
(F728414.5658626399
F4631711.0409979075
tp2000
(dp2001
I0
(dp2002
g862
F46.73444494151742
sssg724
(dp2003
I0
(dp2004
g862
F122.41106109769056
sss(F728338.5800537178
F4631793.307605878
tp2005
g1547
ssg408
(dp2006
g534
(dp2007
I0
(dp2008
g862
F51.39822404893991
ssssg410
(dp2009
g30
g946
s(F727733.3421069515
F4631205.75222469
tp2010
(dp2011
I0
(dp2012
g862
F27.424048013162395
sssg372
g1941
ssg412
(dp2013
(F727696.4856245794
F4631555.373154681
tp2014
g1035
sg374
g1947
s(F727845.1239324356
F4631492.314807826
tp2015
g1633
ssg414
(dp2016
g234
g1550
s(F728959.3962362842
F4632213.690537725
tp2017
g1404
s(F728958.6109288177
F4632201.883009868
tp2018
(dp2019
I0
(dp2020
g862
F16.9106774865872
ssssg416
(dp2021
(F727446.074310411
F4632118.565068769
tp2022
(dp2023
I0
(dp2024
g862
F287.40876578408637
ssssg418
(dp2025
g386
g1974
ssg420
(dp2026
(F728307.6604702758
F4633364.582260795
tp2027
g1859
ssg422
(dp2028
g610
(dp2029
I0
(dp2030
g862
F294.06315264681893
ssI1
(dp2031
g862
F277.41141641771486
sss(F729675.0710133899
F4633518.312213309
tp2032
(dp2033
I0
(dp2034
g862
F475.9660004174462
ssssg424
(dp2035
g50
g1014
s(F727534.0742046055
F4632465.283567255
tp2036
g1174
s(F727518.1855974125
F4632235.71803905
tp2037
g1712
s(F727704.5252371902
F4632283.2342211725
tp2038
(dp2039
I0
(dp2040
g862
F45.97104322489327
ssssg426
(dp2041
(F727534.0742046055
F4632465.283567255
tp2042
g1177
sg206
g1470
sg150
g1312
ssg428
(dp2043
g846
(dp2044
I0
(dp2045
g862
F585.0005075961708
sssg738
(dp2046
I0
(dp2047
g862
F112.75597756526543
sss(F727995.8607604454
F4633148.640090804
tp2048
(dp2049
I0
(dp2050
g862
F139.64713487243986
ssssg430
(dp2051
(F727979.2314122722
F4632802.644758684
tp2052
(dp2053
I0
(dp2054
g862
F68.17111847956153
sssg120
g1222
ssg432
(dp2055
(F728457.883212416
F4632511.287469881
tp2056
(dp2057
I0
(dp2058
g862
F111.60171580322933
sssg630
(dp2059
I0
(dp2060
g862
F148.83072804853762
sss(F728570.550418529
F4632446.75961431
tp2061
(dp2062
I0
(dp2063
g862
F56.647296717224556
ssssg434
(dp2064
g218
g1504
sg656
(dp2065
I0
(dp2066
g862
F383.92276968265077
ssssg436
(dp2067
(F728239.1895828937
F4631416.542017237
tp2068
(dp2069
I0
(dp2070
g862
F180.81702401936545
ssssg438
(dp2071
(F727979.2314122722
F4632802.644758684
tp2072
(dp2073
I0
(dp2074
g862
F147.29371377166638
sssg304
g1759
s(F727898.4326808064
F4632929.333516858
tp2075
(dp2076
I0
(dp2077
g862
F20.79243025633362
ssssg440
(dp2078
(F727078.7592654369
F4630895.453916756
tp2079
g1804
ssg442
(dp2080
g470
(dp2081
I0
(dp2082
g862
F163.74217849885392
sss(F728398.3156278314
F4631491.2154450845
tp2083
g1925
s(F728318.3565299821
F4631624.819116834
tp2084
g1302
ssg444
(dp2085
g728
(dp2086
I0
(dp2087
g862
F306.62155553628503
ssssg446
(dp2088
(F727919.1128365126
F4632237.845133024
tp2089
(dp2090
I0
(dp2091
g862
F95.88660565095421
ssssg448
(dp2092
(F726360.1517642636
F4633803.792113558
tp2093
g1884
sg566
(dp2094
I0
(dp2095
g862
F399.85855861679136
sss(F726213.9693830318
F4633749.468231625
tp2096
g915
ssg450
(dp2097
g466
(dp2098
I0
(dp2099
g862
F43.5666225616994
ssssg452
(dp2100
g760
(dp2101
I0
(dp2102
g862
F155.8819585596576
ssssg454
(dp2103
(F728423.6760749947
F4630480.533640647
tp2104
g1793
sg236
g1557
sg382
g1963
ssg456
(dp2105
g288
g1714
s(F727189.6187861799
F4632034.731895083
tp2106
(dp2107
I0
(dp2108
g862
F157.5836482218847
ssssg458
(dp2109
(F727884.8839327868
F4632913.561497866
tp2110
g2073
sg430
g2053
s(F728101.5996920384
F4632907.7064794125
tp2111
(dp2112
I0
(dp2113
g862
F161.88784097891147
ssssg460
(dp2114
g194
g1441
s(F726609.7666895215
F4633980.782654444
tp2115
g1386
ssg462
(dp2116
(F727995.8607604454
F4633148.640090804
tp2117
(dp2118
I0
(dp2119
g862
F107.30937391207333
sssg200
g1455
s(F727922.941355062
F4633013.259133458
tp2120
(dp2121
I0
(dp2122
g862
F109.27149091599276
ssssg464
(dp2123
(F728519.1505597022
F4632763.67901488
tp2124
g1143
ssg466
(dp2125
g450
g2098
s(F727740.3719835463
F4631264.331597562
tp2126
g1656
s(F727733.3421069515
F4631205.75222469
tp2127
(dp2128
I0
(dp2129
g862
F27.84930937930062
ssssg468
(dp2130
g802
(dp2131
I0
(dp2132
g862
F9.508605634992621
sssg620
(dp2133
I0
(dp2134
g862
F220.45415770596034
sssg580
(dp2135
I0
(dp2136
g862
F138.63122818577844
ssssg470
(dp2137
g262
g1624
sg442
g2081
sg436
g2069
ssg472
(dp2138
(F728028.8800985152
F4631668.137400657
tp2139
(dp2140
I0
(dp2141
g862
F0.742875911304078
ssssg474
(dp2142
g178
g1395
ssg476
(dp2143
g126
g1240
ssg478
(dp2144
(F728011.8029704535
F4632132.210679294
tp2145
(dp2146
I0
(dp2147
g862
F12.49347233942123
sss(F728061.8809991396
F4632175.56186292
tp2148
(dp2149
I0
(dp2150
g862
F53.76749291808447
ssssg480
(dp2151
(F728682.2089037469
F4630633.533536969
tp2152
(dp2153
I0
(dp2154
g862
F78.99815006742273
sss(F728618.7167365394
F4630881.038737223
tp2155
(dp2156
I0
(dp2157
g862
F202.67208067005194
ssssg482
(dp2158
(F729385.4503112381
F4631206.868969908
tp2159
(dp2160
I0
(dp2161
g862
F239.41627744066915
sss(F729185.2926239066
F4631350.607051305
tp2162
(dp2163
I0
(dp2164
g862
F34.54981539298393
sssg706
(dp2165
I0
(dp2166
g862
F21.284978738263593
sss(F729209.4409303941
F4631375.614266914
tp2167
g1086
ssg484
(dp2168
g774
(dp2169
I0
(dp2170
g862
F155.0219035598331
sss(F726343.2995946307
F4633318.41485946
tp2171
g1275
sg20
g912
ssg486
(dp2172
g246
g1580
ssg488
(dp2173
(F728021.4737335377
F4632140.120369077
tp2174
g2149
sg230
g1541
ssg490
(dp2175
(F730136.9798474425
F4633015.108355239
tp2176
(dp2177
I0
(dp2178
g862
F719.7667421209773
sssg548
(dp2179
I0
(dp2180
g862
F259.955630202804
sssg632
(dp2181
I0
(dp2182
g862
F1071.5961908721254
ssssg492
(dp2183
g106
g1188
ssg494
(dp2184
g12
g880
sg768
(dp2185
I0
(dp2186
g862
F62.43793103059264
sss(F729512.0593959909
F4631340.768176898
tp2187
g1688
ssg496
(dp2188
(F728094.3459866289
F4632708.5489696525
tp2189
g1225
s(F728240.6765748361
F4632726.974268271
tp2190
g1094
ssg498
(dp2191
(F728959.3962362842
F4632213.690537725
tp2192
g1407
s(F728971.5680986852
F4632212.747349851
tp2193
g2019
sg296
g1738
ssg500
(dp2194
g578
(dp2195
I0
(dp2196
g862
F530.1089670010635
sss(F729017.7362828713
F4633170.599774526
tp2197
g1814
sg780
(dp2198
I0
(dp2199
g862
F108.04025944467759
ssssg502
(dp2200
g634
(dp2201
I0
(dp2202
g862
F256.04926996598215
sssg686
(dp2203
I0
(dp2204
g862
F381.8738058312444
sssg480
g2153
ssg504
(dp2205
(F728421.5210681092
F4631875.659405485
tp2206
(dp2207
I0
(dp2208
g862
F171.31622991577845
sss(F728633.538580009
F4631908.460396009
tp2209
(dp2210
I0
(dp2211
g862
F110.79581477298028
sss(F728508.6495154193
F4632086.862135807
tp2212
(dp2213
I0
(dp2214
g862
F112.16089096709344
ssssg506
(dp2215
(F729109.5490611134
F4631523.353480334
tp2216
(dp2217
I0
(dp2218
g862
F75.39020671360613
sss(F728991.7593916691
F4631573.259732309
tp2219
(dp2220
I0
(dp2221
g862
F80.20442481771173
sss(F728981.8130578371
F4631717.329459975
tp2222
g1211
ssg508
(dp2223
(F727387.2552190276
F4632816.10957179
tp2224
g1506
ssg510
(dp2225
(F728873.1673577781
F4631881.574673017
tp2226
(dp2227
I0
(dp2228
g862
F118.72716426140236
sss(F728797.099659346
F4631787.321910296
tp2229
(dp2230
I0
(dp2231
g862
F65.50593048390303
sssg528
(dp2232
I0
(dp2233
g862
F145.76339440169323
ssssg512
(dp2234
g174
g1374
ssg514
(dp2235
g790
(dp2236
I0
(dp2237
g862
F23.553838643052174
sss(F728384.4201326583
F4632590.299336023
tp2238
g1677
ssg516
(dp2239
(F727421.0344274084
F4631461.446023394
tp2240
g1561
s(F727548.1902871036
F4631315.666566696
tp2241
(dp2242
I0
(dp2243
g862
F198.6879734965975
sss(F727248.7865143036
F4631529.540895255
tp2244
g1114
ssg518
(dp2245
g86
g1124
ssg520
(dp2246
(F728418.4471356437
F4631714.499849313
tp2247
g1151
sg598
(dp2248
I0
(dp2249
g862
F445.9802438557336
sssg362
g1919
ssg522
(dp2250
g752
(dp2251
I0
(dp2252
g862
F413.9890018796726
sssg320
g1806
sg554
(dp2253
I0
(dp2254
g862
F282.047506328919
ssssg524
(dp2255
(F727997.2381720252
F4630648.856320788
tp2256
g1528
s(F728225.8264014801
F4630677.0587361725
tp2257
(dp2258
I0
(dp2259
g862
F164.0597691205256
sssg538
(dp2260
I0
(dp2261
g862
F52.466420553437416
ssssg526
(dp2262
(F727888.2274373128
F4633579.14146503
tp2263
(dp2264
I0
(dp2265
g862
F279.763752367186
ssssg528
(dp2266
g266
g1638
s(F728553.4999198893
F4631984.814922466
tp2267
g2210
sg510
g2232
ssg530
(dp2268
g602
(dp2269
I0
(dp2270
g862
F34.81611346434967
sssg388
g1977
ssg532
(dp2271
(F725284.9268239368
F4634019.048840103
tp2272
g1864
s(F724963.391528518
F4634473.725525812
tp2273
(dp2274
I0
(dp2275
g862
F517.6730750919688
sss(F725016.95398938
F4633961.902813891
tp2276
(dp2277
I0
(dp2278
g862
F134.9772303865589
ssssg534
(dp2279
g588
(dp2280
I0
(dp2281
g862
F130.11611629538095
sssg408
g2007
sg252
g1594
ssg536
(dp2282
(F727741.0498387511
F4631180.544297418
tp2283
g2011
sg158
g1331
s(F727729.9990457414
F4631232.32212005
tp2284
g2128
ssg538
(dp2285
(F728063.0301295612
F4630656.738218881
tp2286
g2260
ssg540
(dp2287
(F727584.242760262
F4630991.029069324
tp2288
g1365
ssg542
(dp2289
g402
g1994
s(F726446.4651989109
F4632588.313339565
tp2290
g1490
s(F726476.7471558268
F4632538.380777539
tp2291
g1908
ssg544
(dp2292
(F728797.099659346
F4631787.321910296
tp2293
(dp2294
I0
(dp2295
g862
F86.25666905928159
ssssg546
(dp2296
g166
g1351
sg628
(dp2297
I0
(dp2298
g862
F109.6662119272924
sssg836
(dp2299
I0
(dp2300
g862
F26.42376407280753
ssssg548
(dp2301
(F729178.9132283742
F4631991.98381625
tp2302
g1553
s(F729567.6577481428
F4632631.839216878
tp2303
g2179
ssg550
(dp2304
(F728005.7003876327
F4631983.94122803
tp2305
g1932
s(F728067.4618237446
F4631912.90784649
tp2306
g1647
ssg552
(dp2307
(F724622.006754156
F4632139.27079971
tp2308
(dp2309
I0
(dp2310
g862
F192.26554441284077
sss(F724547.4795654535
F4632303.648269719
tp2311
g1784
ssg554
(dp2312
(F727373.152007082
F4631027.427565214
tp2313
g2253
ssg556
(dp2314
(F725491.5438263947
F4633439.92869529
tp2315
(dp2316
I0
(dp2317
g862
F100.1113098612589
sssg822
(dp2318
I0
(dp2319
g862
F561.195295431203
sss(F725216.4680115121
F4633309.526479635
tp2320
g1398
ssg558
(dp2321
(F728944.9686424374
F4631152.263791159
tp2322
g1747
s(F728664.8643691958
F4630917.863927344
tp2323
(dp2324
I0
(dp2325
g862
F135.6514122480724
sss(F728544.9608314405
F4631298.502488052
tp2326
g1777
ssg560
(dp2327
(F728203.1606626901
F4632359.313082784
tp2328
(dp2329
I0
(dp2330
g862
F29.977058124273615
sssg712
(dp2331
I0
(dp2332
g862
F21.389711332953333
ssssg562
(dp2333
(F728704.1888070406
F4632140.5905886125
tp2334
(dp2335
I0
(dp2336
g862
F45.02078124309679
sssg328
g1827
s(F728615.4323211496
F4632279.959894167
tp2337
(dp2338
I0
(dp2339
g862
F120.21775326752115
ssssg564
(dp2340
g404
g1997
ssg566
(dp2341
(F726318.2611754737
F4633358.07927658
tp2342
(dp2343
I0
(dp2344
g862
F37.07962072210978
sssg448
g2094
s(F726492.2061906102
F4633467.861842199
tp2345
(dp2346
I0
(dp2347
g862
F544.3138619505108
ssssg568
(dp2348
(F727317.0263632541
F4632127.303906278
tp2349
g1847
s(F727417.1031963971
F4632432.68001016
tp2350
(dp2351
I0
(dp2352
g862
F384.38349884816023
ssssg570
(dp2353
g722
(dp2354
I0
(dp2355
g862
F310.261559853409
sss(F727685.0132996463
F4631526.552047027
tp2356
g1343
ssg572
(dp2357
g300
g1744
s(F729185.2926239066
F4631350.607051305
tp2358
(dp2359
I0
(dp2360
g862
F124.93368161002431
ssssg574
(dp2361
(F727094.3836619088
F4631604.098665779
tp2362
g1260
ssg576
(dp2363
g10
g871
s(F728065.3691980868
F4631538.699011285
tp2364
g1629
s(F727981.5276203982
F4631518.124125179
tp2365
g1618
ssg578
(dp2366
(F730136.9798474425
F4633015.108355239
tp2367
(dp2368
I0
(dp2369
g862
F715.3970814495593
sss(F729233.8966447223
F4633463.878577556
tp2370
(dp2371
I0
(dp2372
g862
F455.7273608463329
sss(F729776.5617357248
F4633754.1184659675
tp2373
g2033
s(F729201.2805355573
F4633363.680350743
tp2374
g2195
ssg580
(dp2375
g122
g1233
sg258
g1609
sg468
g2135
ssg582
(dp2376
g612
(dp2377
I0
(dp2378
g862
F161.01451714498165
ssI1
(dp2379
g862
F161.01451714498165
sssg504
g2207
sg232
g1544
ssg584
(dp2380
(F728171.306125866
F4631794.180820483
tp2381
g1063
ssg586
(dp2382
(F728171.306125866
F4631794.180820483
tp2383
g1065
s(F728081.5337174463
F4631896.7946159765
tp2384
g1166
ssg588
(dp2385
g336
g1853
s(F725154.5352186314
F4631188.277934591
tp2386
g2280
s(F725765.3345228384
F4631474.669762542
tp2387
g959
ssg590
(dp2388
(F723473.1595553795
F4632931.465369329
tp2389
(dp2390
I0
(dp2391
g862
F845.0442657715533
ssssg592
(dp2392
(F726527.3596068854
F4634080.756968588
tp2393
(dp2394
I0
(dp2395
g862
F246.03850027989094
sssg176
g1383
ssg594
(dp2396
(F728604.7917315748
F4632296.270615568
tp2397
(dp2398
I0
(dp2399
g862
F19.474644518574394
sss(F728680.2630826856
F4632178.727404295
tp2400
g2338
ssg596
(dp2401
g8
g864
sg156
g1322
s(F726287.580718046
F4632786.78882651
tp2402
(dp2403
I0
(dp2404
g862
F147.0140505066487
ssssg598
(dp2405
g520
g2248
sg828
(dp2406
I0
(dp2407
g862
F87.41969957141669
sss(F728801.7843468464
F4631599.733513711
tp2408
g1876
ssg600
(dp2409
g242
g1568
s(F726602.2264399002
F4630974.897184673
tp2410
g1831
sg674
(dp2411
I0
(dp2412
g862
F395.4556538459081
ssssg602
(dp2413
(F727767.0900048219
F4632120.836734954
tp2414
(dp2415
I0
(dp2416
g862
F49.95806037922419
sss(F727849.4129105412
F4632132.246565969
tp2417
g2269
ssg604
(dp2418
g396
g1987
ssg606
(dp2419
g824
(dp2420
I0
(dp2421
g862
F489.3933842701011
ssI1
(dp2422
g862
F60.46920080835742
sssg734
(dp2423
I0
(dp2424
g862
F28.80012199361097
ssssg608
(dp2425
(F729017.1058609276
F4632973.471231069
tp2426
g1298
s(F728654.9685924951
F4632506.04231694
tp2427
g1242
ssg610
(dp2428
(F729531.8438617149
F4633935.644825345
tp2429
(dp2430
I0
(dp2431
g862
F36.930223586555506
sssg422
g2029
ssg612
(dp2432
(F728421.5210681092
F4631875.659405485
tp2433
g2377
sg302
g1754
sg732
(dp2434
I0
(dp2435
g862
F230.54586826601115
ssssg614
(dp2436
g708
(dp2437
I0
(dp2438
g862
F268.4599865516286
ssssg616
(dp2439
(F728034.1653009783
F4633079.282497208
tp2440
g1666
sg654
(dp2441
I0
(dp2442
g862
F1.13594783257934
ssI1
(dp2443
g862
F1.13594783257934
ssssg618
(dp2444
g704
(dp2445
I0
(dp2446
g862
F181.6839237531858
ssI1
(dp2447
g862
F144.16435909380274
ssssg620
(dp2448
g552
g2309
s(F724698.2345369158
F4632116.11664999
tp2449
g1451
s(F724650.5087041763
F4631952.437302046
tp2450
g2133
ssg622
(dp2451
(F726602.2264399002
F4630974.897184673
tp2452
g1835
ssg624
(dp2453
(F727898.4326808064
F4632929.333516858
tp2454
(dp2455
I0
(dp2456
g862
F21.039366677155822
sssg800
(dp2457
I0
(dp2458
g862
F69.06461970348806
ssI1
(dp2459
g862
F266.4957956592501
ssssg626
(dp2460
g180
g1401
s(F728790.5880432061
F4632008.531362715
tp2461
g1733
s(F728680.2630826856
F4632178.727404295
tp2462
g2335
ssg628
(dp2463
(F726636.1027871186
F4632741.278449635
tp2464
g2297
ssg630
(dp2465
g594
g2398
s(F728521.0369477848
F4632419.27447721
tp2466
g2059
ssg632
(dp2467
(F728654.9685924951
F4632506.04231694
tp2468
g1245
s(F728521.0369477848
F4632419.27447721
tp2469
g2062
sg490
g2181
ssg634
(dp2470
g502
g2201
ssg636
(dp2471
g684
(dp2472
I0
(dp2473
g862
F165.99759623970033
ssssg638
(dp2474
(F726569.0803057437
F4632686.352230362
tp2475
g1587
sg352
g1897
sg164
g1347
ssg640
(dp2476
(F725396.8752380656
F4633407.369826292
tp2477
g2316
sg66
g1057
sg652
(dp2478
I0
(dp2479
g862
F572.7866602517541
ssssg642
(dp2480
g26
g935
sg830
(dp2481
I0
(dp2482
g862
F63.62227331988788
ssssg644
(dp2483
g130
g1257
s(F727756.4573303794
F4632591.895823977
tp2484
g1005
s(F727802.978240897
F4632351.179509729
tp2485
(dp2486
I0
(dp2487
g862
F115.22310173456604
ssssg646
(dp2488
(F728955.7979321535
F4631955.2532279305
tp2489
g1869
ssg648
(dp2490
g228
g1534
ssg650
(dp2491
(F728664.8643691958
F4630917.863927344
tp2492
(dp2493
I0
(dp2494
g862
F59.04021964203022
sss(F728545.8465884556
F4630824.128591656
tp2495
(dp2496
I0
(dp2497
g862
F92.46019825164495
sss(F728684.9569593335
F4630711.317789298
tp2498
g2156
ssg652
(dp2499
(F726042.5418736974
F4633688.900763541
tp2500
g941
s(F725491.5438263947
F4633439.92869529
tp2501
g2478
s(F725977.0630058948
F4633514.992326622
tp2502
(dp2503
I0
(dp2504
g862
F166.3457819479438
ssssg654
(dp2505
g458
g2112
s(F728240.0166194064
F4632727.677658365
tp2506
(dp2507
I0
(dp2508
g862
F228.22913150459448
sssg616
g2441
ssg656
(dp2509
(F727111.9404279696
F4633104.880091403
tp2510
g1309
sg434
g2065
ssg658
(dp2511
g330
g1833
sg332
g1840
sg764
(dp2512
I0
(dp2513
g862
F1057.5046147692924
ssssg660
(dp2514
(F728241.6771468419
F4630563.745069347
tp2515
g1518
ssg662
(dp2516
(F728618.7167365394
F4630881.038737223
tp2517
g2493
sg848
(dp2518
I0
(dp2519
g862
F373.3173996763807
sss(F728770.6890004126
F4631002.730883477
tp2520
g2324
ssg664
(dp2521
(F724061.8961527605
F4631531.791965361
tp2522
g1708
s(F725081.9102351557
F4633866.252217513
tp2523
(dp2524
I0
(dp2525
g862
F1926.0242193665665
sssg590
g2390
ssg666
(dp2526
(F727565.2380166536
F4631605.206145283
tp2527
g1461
sg778
(dp2528
I0
(dp2529
g862
F41.45615087418398
ssI1
(dp2530
g862
F41.45615087418398
sssg272
g1662
ssg668
(dp2531
(F729088.1758663505
F4631272.015041489
tp2532
g2359
s(F729212.6435106986
F4631371.715589921
tp2533
g2163
sg78
g1097
ssg670
(dp2534
g298
g1741
s(F724663.5897541778
F4632590.623597024
tp2535
g902
s(F725216.4680115121
F4633309.526479635
tp2536
g1393
ssg672
(dp2537
(F727921.2775405501
F4633257.853791843
tp2538
g2049
sg42
g988
s(F727893.8094297142
F4633118.257010953
tp2539
g2118
ssg674
(dp2540
(F727094.3836619088
F4631604.098665779
tp2541
g1265
s(F727217.378053271
F4631189.082831979
tp2542
g2411
s(F727248.7865143036
F4631529.540895255
tp2543
g1111
ssg676
(dp2544
g746
(dp2545
I0
(dp2546
g862
F163.52507078252015
ssssg678
(dp2547
g144
g1293
s(F729640.5023638355
F4630722.212854114
tp2548
(dp2549
I0
(dp2550
g862
F32.532635046529585
sssg806
(dp2551
I0
(dp2552
g862
F3.418895989036023
ssssg680
(dp2553
g438
g2076
sg256
g1602
s(F727911.9707224206
F4632945.438683092
tp2554
g2455
ssg682
(dp2555
g62
g1047
sg532
g2274
sg814
(dp2556
I0
(dp2557
g862
F2166.3638121184804
ssssg684
(dp2558
g740
(dp2559
I0
(dp2560
g862
F2.322600331049634
sssg636
g2472
s(F726169.1880161108
F4632872.843706683
tp2561
g2403
ssg686
(dp2562
(F728682.2089037469
F4630633.533536969
tp2563
g2203
ssg688
(dp2564
(F726345.6542054281
F4633383.068515438
tp2565
g2346
s(F726400.389735997
F4633667.686420177
tp2566
(dp2567
I0
(dp2568
g862
F238.3437089765277
ssI1
(dp2569
g862
F238.97858761672035
ssssg690
(dp2570
g416
g2023
s(F727677.4214841509
F4632217.900641248
tp2571
g1017
sg36
g971
ssg692
(dp2572
(F728991.7593916691
F4631573.259732309
tp2573
(dp2574
I0
(dp2575
g862
F124.82811545991382
sssg506
g2220
ssg694
(dp2576
(F724658.3619571324
F4631960.584465782
tp2577
g1574
sg214
g1493
s(F724724.3757691045
F4631719.684537816
tp2578
g1612
ssg696
(dp2579
(F728101.5996920384
F4632907.7064794125
tp2580
g2507
sg76
g1089
ssg698
(dp2581
(F729564.8837038452
F4633919.146030051
tp2582
g2430
sg282
g1691
ssg700
(dp2583
g152
g1315
s(F726685.8531262018
F4631599.444357995
tp2584
g1532
s(F726251.9408204223
F4631348.80979479
tp2585
g1843
ssg702
(dp2586
g248
g1585
sg212
g1487
sg204
g1467
ssg704
(dp2587
(F727451.0649473364
F4631651.695364726
tp2588
g1418
sg618
g2445
ssg706
(dp2589
g482
g2165
ssg708
(dp2590
g614
g2437
s(F725721.7056098223
F4633105.644505014
tp2591
g1060
sg716
(dp2592
I0
(dp2593
g862
F2.584660104195326
ssssg710
(dp2594
g322
g1810
s(F724657.6473082518
F4631958.7185370345
tp2595
(dp2596
I0
(dp2597
g862
F1.485138095645006
ssssg712
(dp2598
g40
g982
s(F728179.1365034595
F4632341.697314924
tp2599
g2331
ssg714
(dp2600
g280
g1685
ssg716
(dp2601
(F726008.4390609307
F4633676.260054162
tp2602
g2503
s(F725976.7996902687
F4633512.421114313
tp2603
g2592
ssg718
(dp2604
g766
(dp2605
I0
(dp2606
g862
F224.81303598654986
ssssg720
(dp2607
(F728873.1673577781
F4631881.574673017
tp2608
(dp2609
I0
(dp2610
g862
F87.6458360535802
sss(F728790.5880432061
F4632008.531362715
tp2611
g1736
ssg722
(dp2612
g44
g995
s(F727740.3719835463
F4631264.331597562
tp2613
g1659
sg570
g2354
ssg724
(dp2614
g406
g2003
ssg726
(dp2615
g94
g1153
s(F728381.087111431
F4631743.648752601
tp2616
g2001
sg148
g1305
ssg728
(dp2617
(F725961.3840906238
F4632945.21803242
tp2618
g860
s(F725700.7304960729
F4633035.400425814
tp2619
g925
sg444
g2086
ssg730
(dp2620
(F726942.5518265516
F4631822.7938673105
tp2621
g1497
s(F727317.9427992324
F4632126.191697331
tp2622
g2107
sg356
g1905
sg82
g1108
ssg732
(dp2623
(F728501.9754338262
F4632103.099080149
tp2624
g1825
s(F728321.7955507009
F4632000.738142483
tp2625
g2434
s(F728553.4999198893
F4631984.814922466
tp2626
g2213
ssg734
(dp2627
g688
g2567
s(F726396.8222934516
F4633696.250227833
tp2628
g2423
ssg736
(dp2629
g138
g1277
ssg738
(dp2630
(F726997.941714454
F4634229.313977048
tp2631
(dp2632
I0
(dp2633
g862
F1240.3545372046613
sss(F727921.2775405501
F4633257.853791843
tp2634
g2046
s(F727955.6112231173
F4633297.076681268
tp2635
g1476
ssg740
(dp2636
(F726287.580718046
F4632786.78882651
tp2637
g2559
s(F726446.4651989109
F4632588.313339565
tp2638
g1485
ssg742
(dp2639
(F728955.7979321535
F4631955.2532279305
tp2640
g1867
s(F728900.1131181453
F4631841.280856979
tp2641
g1718
s(F728762.6295774302
F4631843.016164692
tp2642
g2227
sg720
g2609
ssg744
(dp2643
(F728762.6295774302
F4631843.016164692
tp2644
g2230
s(F728723.2615229886
F4631722.04153178
tp2645
g976
sg544
g2294
ssg746
(dp2646
g782
(dp2647
I0
(dp2648
g862
F115.34769943390499
sssg378
g1957
sg676
g2545
ssg748
(dp2649
g350
g1890
ssg750
(dp2650
g840
(dp2651
I0
(dp2652
g862
F44.82054535505582
ssssg752
(dp2653
(F727373.152007082
F4631027.427565214
tp2654
g2251
s(F727078.7592654369
F4630895.453916756
tp2655
g1802
sg84
g1118
ssg754
(dp2656
g182
g1410
s(F729567.6577481428
F4632631.839216878
tp2657
g2177
s(F729675.0710133899
F4633518.312213309
tp2658
g2368
ssg756
(dp2659
(F728398.3156278314
F4631491.2154450845
tp2660
g1922
s(F728544.9608314405
F4631298.502488052
tp2661
g1772
s(F728454.9539764317
F4631221.036567812
tp2662
(dp2663
I0
(dp2664
g862
F246.30540302734727
ssssg758
(dp2665
g794
(dp2666
I0
(dp2667
g862
F101.48654701819399
sssg16
g896
ssg760
(dp2668
g452
g2101
sg524
g2258
s(F728334.3095166851
F4630692.088354165
tp2669
g1888
ssg762
(dp2670
(F727815.8044348673
F4632124.043413935
tp2671
g2415
s(F727677.4214841509
F4632217.900641248
tp2672
g1012
s(F727732.5353298677
F4631991.826355495
tp2673
g1951
ssg764
(dp2674
(F726307.4487018035
F4629660.857193117
tp2675
g1377
s(F724941.6666924856
F4630933.590732058
tp2676
g1856
s(F726430.9409596003
F4631020.478873167
tp2677
g2512
ssg766
(dp2678
g360
g1915
sg102
g1180
sg568
g2351
sg718
g2605
ssg768
(dp2679
(F729212.6435106986
F4631371.715589921
tp2680
g2160
s(F729600.7494761918
F4631014.159328508
tp2681
g1075
s(F729429.954683168
F4631250.64945156
tp2682
g2185
s(F729640.5023638355
F4630722.212854114
tp2683
(dp2684
I0
(dp2685
g862
F547.9389338172034
ssssg770
(dp2686
g92
g1141
sg276
g1672
sg284
g1695
ssg772
(dp2687
(F728160.1627588937
F4632311.905502785
tp2688
g979
s(F728114.3337081606
F4632220.137771262
tp2689
g1539
ssg774
(dp2690
(F726343.2995946307
F4633318.41485946
tp2691
g1272
s(F726345.6542054281
F4633383.068515438
tp2692
g2343
sg484
g2169
ssg776
(dp2693
(F726586.181130031
F4632700.344775771
tp2694
g1357
ssg778
(dp2695
(F727585.9082326686
F4631340.433692854
tp2696
g1328
s(F727565.5289352797
F4631382.243923443
tp2697
g2528
ssg780
(dp2698
(F729675.0710133899
F4633518.312213309
tp2699
g2371
s(F729201.2805355573
F4633363.680350743
tp2700
g2198
ssg782
(dp2701
(F728286.7189687737
F4630520.835522417
tp2702
g2647
ssg784
(dp2703
(F728065.3691980868
F4631538.699011285
tp2704
g1627
sg472
g2140
s(F728029.4367409265
F4631668.629349683
tp2705
g1578
sg260
g1615
ssg786
(dp2706
(F727585.9082326686
F4631340.433692854
tp2707
g1325
s(F727560.5284006596
F4631189.56876712
tp2708
g1192
s(F727404.8688828783
F4631444.14685402
tp2709
g2242
ssg788
(dp2710
(F728457.883212416
F4632511.287469881
tp2711
(dp2712
I0
(dp2713
g862
F80.90212024484524
sss(F728330.4655250319
F4632480.753269472
tp2714
g1254
ssg790
(dp2715
g514
g2236
sg432
g2057
sg788
g2712
ssg792
(dp2716
g358
g1911
ssg794
(dp2717
g818
(dp2718
I0
(dp2719
g862
F140.58734019823893
sssg758
g2666
sg446
g2090
ssg796
(dp2720
g560
g2329
s(F728271.3171141271
F4632387.093135622
tp2721
g1984
ssg798
(dp2722
g250
g1590
sg650
g2496
s(F728416.0452431991
F4630716.378527694
tp2723
g1967
ssg800
(dp2724
g462
g2121
sg624
g2457
ssg802
(dp2725
g710
g2596
s(F724650.5087041763
F4631952.437302046
tp2726
g2131
ssg804
(dp2727
(F727661.461909629
F4632267.187655033
tp2728
g2039
s(F727730.9223290035
F4632297.74862613
tp2729
g1765
s(F727736.487501654
F4632446.426251695
tp2730
g1727
ssg806
(dp2731
(F729656.7098364823
F4630694.167646158
tp2732
g2551
ssg808
(dp2733
g32
g956
ssg810
(dp2734
(F729385.4503112381
F4631206.868969908
tp2735
g2684
s(F729656.7098364823
F4630694.167646158
tp2736
g2549
sg72
g1079
ssg812
(dp2737
(F727756.4573303794
F4632591.895823977
tp2738
g1001
ssg814
(dp2739
(F727882.0055880835
F4633362.749923751
tp2740
g2632
s(F724963.391528518
F4634473.725525812
tp2741
g2556
ssg816
(dp2742
g274
g1669
ssg818
(dp2743
g478
g2146
s(F727919.1128365126
F4632237.845133024
tp2744
g2718
s(F728006.1047585672
F4632127.180763112
tp2745
g1426
ssg820
(dp2746
(F726615.6810014477
F4632724.51262158
tp2747
(dp2748
I0
(dp2749
g862
F93.48526049546294
ssssg822
(dp2750
g556
g2318
sg664
g2524
s(F725016.95398938
F4633961.902813891
tp2751
(dp2752
I0
(dp2753
g862
F116.04494243408925
ssssg824
(dp2754
g348
g1880
sg606
g2420
ssg826
(dp2755
(F729120.5688592804
F4631506.558666509
tp2756
g1336
sg52
g1020
s(F729068.1863047086
F4631586.383659422
tp2757
g2217
ssg828
(dp2758
(F728687.3436717491
F4631545.2675764905
tp2759
(dp2760
I0
(dp2761
g862
F122.81535445267579
sss(F728771.3020417456
F4631541.400841073
tp2762
g2406
ssg830
(dp2763
(F727774.2296124296
F4632248.659069085
tp2764
g2481
ssg832
(dp2765
(F727730.9223290035
F4632297.74862613
tp2766
g1769
s(F727736.487501654
F4632446.426251695
tp2767
g1729
s(F727904.188254968
F4632405.653728924
tp2768
g2486
ssg834
(dp2769
(F724761.252566339
F4632116.869504925
tp2770
g1972
sg318
g1798
sg278
g1681
ssg836
(dp2771
g546
g2299
sg168
g1360
sg820
g2748
ssg838
(dp2772
g268
g1645
s(F728081.5337174463
F4631896.7946159765
tp2773
g1159
ssg840
(dp2774
(F728579.9923637034
F4631860.566779728
tp2775
g1641
s(F728481.1384234718
F4631771.503874317
tp2776
g1599
sg750
g2651
ssg842
(dp2777
g224
g1520
ssg844
(dp2778
g354
g1902
sg24
g932
s(F724547.4795654535
F4632303.648269719
tp2779
g1788
ssg846
(dp2780
g428
g2044
ssg848
(dp2781
g662
g2518
sg310
g1775
s(F728424.570723455
F4631458.265295695
tp2782
g2663
ssg850
(dp2783
(F724640.1448509705
F4634514.438614936
tp2784
g1049
s(F725081.9102351557
F4633866.252217513
tp2785
g2752
s(F725138.39745622
F4634012.530779428
tp2786
g2277
ssg852
(dp2787
g118
g1218
sg210
g1481
sg526
g2264
sssS'adj'
p2788
g857
sb.